	.section	__TEXT,__text,regular,pure_instructions
	.build_version macos, 11, 0
	.p2align	2
__ZN119_$LT$core..ptr..non_null..NonNull$LT$T$GT$$u20$as$u20$core..convert..From$LT$core..ptr..unique..Unique$LT$T$GT$$GT$$GT$4from17hb63cec6b9e342922E:
Lfunc_begin0:
	.file	1 "/private/tmp/rust-20211101-73771-1w3cv5q/rustc-1.56.1-src/library/core/src/ptr/non_null.rs"
	.loc	1 690 0
	.cfi_startproc
	sub	sp, sp, #48
	stp	x29, x30, [sp, #32]
	add	x29, sp, #32
	.cfi_def_cfa w29, 16
	.cfi_offset w30, -8
	.cfi_offset w29, -16
	mov	x8, x0
	stur	x8, [x29, #-8]
Ltmp0:
	.loc	1 693 41 prologue_end
	bl	__ZN4core3ptr6unique15Unique$LT$T$GT$6as_ptr17h80aebaf371a1b871E
	str	x0, [sp, #16]
	.loc	1 0 41 is_stmt 0
	ldr	x0, [sp, #16]
	.loc	1 693 18
	bl	__ZN4core3ptr8non_null16NonNull$LT$T$GT$13new_unchecked17he3df3d19b397b81bE
	str	x0, [sp, #8]
	.loc	1 0 18
	ldr	x0, [sp, #8]
	.loc	1 694 6 is_stmt 1
	ldp	x29, x30, [sp, #32]
	add	sp, sp, #48
	ret
Ltmp1:
Lfunc_end0:
	.cfi_endproc

	.p2align	2
__ZN153_$LT$core..result..Result$LT$T$C$F$GT$$u20$as$u20$core..ops..try_trait..FromResidual$LT$core..result..Result$LT$core..convert..Infallible$C$E$GT$$GT$$GT$13from_residual17ha716b7c22b50e51cE:
Lfunc_begin1:
	.file	2 "/private/tmp/rust-20211101-73771-1w3cv5q/rustc-1.56.1-src/library/core/src/result.rs"
	.loc	2 1913 0
	.cfi_startproc
	sub	sp, sp, #48
	stp	x29, x30, [sp, #32]
	add	x29, sp, #32
	.cfi_def_cfa w29, 16
	.cfi_offset w30, -8
	.cfi_offset w29, -16
Ltmp2:
	.loc	2 1915 27 prologue_end
	bl	__ZN50_$LT$T$u20$as$u20$core..convert..From$LT$T$GT$$GT$4from17h55740473304e2a45E
	.loc	2 1915 23 is_stmt 0
	str	xzr, [sp, #8]
	str	xzr, [sp, #16]
	str	xzr, [sp, #8]
Ltmp3:
	.loc	2 1917 6 is_stmt 1
	ldr	x0, [sp, #8]
	ldr	x1, [sp, #16]
	ldp	x29, x30, [sp, #32]
	add	sp, sp, #48
	ret
Ltmp4:
Lfunc_end1:
	.cfi_endproc

	.p2align	2
__ZN3std10sys_common9backtrace28__rust_begin_short_backtrace17h1ff2b46e47103f9fE:
Lfunc_begin2:
	.file	3 "/private/tmp/rust-20211101-73771-1w3cv5q/rustc-1.56.1-src/library/std/src/sys_common/backtrace.rs"
	.loc	3 121 0
	.cfi_startproc
	.cfi_personality 155, _rust_eh_personality
	.cfi_lsda 16, Lexception0
	sub	sp, sp, #48
	stp	x29, x30, [sp, #32]
	add	x29, sp, #32
	.cfi_def_cfa w29, 16
	.cfi_offset w30, -8
	.cfi_offset w29, -16
	mov	x8, x0
	str	x8, [sp, #8]
Ltmp8:
	.loc	3 125 18 prologue_end
	bl	__ZN4core3ops8function6FnOnce9call_once17h5317096b74ee7890E
Ltmp5:
Ltmp9:
	.loc	3 128 5
	bl	__ZN4core4hint9black_box17hc1e001d0a8b5afc8E
Ltmp10:
Ltmp6:
	.loc	3 131 2
	ldp	x29, x30, [sp, #32]
	add	sp, sp, #48
	ret
LBB2_3:
	.loc	3 131 1 is_stmt 0
	b	LBB2_5
LBB2_4:
Ltmp7:
	.loc	3 0 1
	mov	x8, x1
	str	x0, [sp, #16]
	str	w8, [sp, #24]
	b	LBB2_3
LBB2_5:
	.loc	3 121 1 is_stmt 1
	ldr	x0, [sp, #16]
	bl	__Unwind_Resume
Ltmp11:
Lfunc_end2:
	.cfi_endproc
	.section	__TEXT,__gcc_except_tab
	.p2align	2
GCC_except_table2:
Lexception0:
	.byte	255
	.byte	255
	.byte	1
	.uleb128 Lcst_end0-Lcst_begin0
Lcst_begin0:
	.uleb128 Lfunc_begin2-Lfunc_begin2
	.uleb128 Ltmp5-Lfunc_begin2
	.byte	0
	.byte	0
	.uleb128 Ltmp5-Lfunc_begin2
	.uleb128 Ltmp6-Ltmp5
	.uleb128 Ltmp7-Lfunc_begin2
	.byte	0
	.uleb128 Ltmp6-Lfunc_begin2
	.uleb128 Lfunc_end2-Ltmp6
	.byte	0
	.byte	0
Lcst_end0:
	.p2align	2

	.section	__TEXT,__text,regular,pure_instructions
	.private_extern	__ZN3std2rt10lang_start17hd54c34dc581ca981E
	.globl	__ZN3std2rt10lang_start17hd54c34dc581ca981E
	.p2align	2
__ZN3std2rt10lang_start17hd54c34dc581ca981E:
Lfunc_begin3:
	.file	4 "/private/tmp/rust-20211101-73771-1w3cv5q/rustc-1.56.1-src/library/std/src/rt.rs"
	.loc	4 57 0
	.cfi_startproc
	sub	sp, sp, #80
	stp	x29, x30, [sp, #64]
	add	x29, sp, #64
	.cfi_def_cfa w29, 16
	.cfi_offset w30, -8
	.cfi_offset w29, -16
	mov	x8, x0
	str	x1, [sp, #16]
	mov	x3, x2
	ldr	x2, [sp, #16]
	mov	x0, x8
	stur	x0, [x29, #-24]
	stur	x2, [x29, #-16]
	mov	x9, x3
	stur	x9, [x29, #-8]
	add	x0, sp, #32
Ltmp12:
	.loc	4 63 10 prologue_end
	str	x8, [sp, #32]
	.loc	4 0 0 is_stmt 0
	adrp	x1, l___unnamed_1@PAGE
	add	x1, x1, l___unnamed_1@PAGEOFF
	.loc	4 62 5 is_stmt 1
	bl	__ZN3std2rt19lang_start_internal17ha631af460ec1a0f3E
	str	x0, [sp, #24]
	.loc	4 0 5 is_stmt 0
	ldr	x0, [sp, #24]
	.loc	4 62 5
	bl	__ZN4core6result19Result$LT$T$C$E$GT$7into_ok17h4a4c0c0d8f0ce58bE
	str	x0, [sp, #8]
	.loc	4 0 5
	ldr	x0, [sp, #8]
	.loc	4 68 2 is_stmt 1
	ldp	x29, x30, [sp, #64]
	add	sp, sp, #80
	ret
Ltmp13:
Lfunc_end3:
	.cfi_endproc

	.p2align	2
__ZN3std2rt10lang_start28_$u7b$$u7b$closure$u7d$$u7d$17h8631bf89876d8874E:
Lfunc_begin4:
	.loc	4 63 0
	.cfi_startproc
	sub	sp, sp, #32
	stp	x29, x30, [sp, #16]
	add	x29, sp, #16
	.cfi_def_cfa w29, 16
	.cfi_offset w30, -8
	.cfi_offset w29, -16
	mov	x8, x0
	str	x8, [sp, #8]
Ltmp14:
	.loc	4 63 77 prologue_end
	ldr	x0, [x0]
	.loc	4 63 18 is_stmt 0
	bl	__ZN3std10sys_common9backtrace28__rust_begin_short_backtrace17h1ff2b46e47103f9fE
	bl	__ZN54_$LT$$LP$$RP$$u20$as$u20$std..process..Termination$GT$6report17hcd51e4a926feea8dE
	str	w0, [sp, #4]
	.loc	4 0 18
	ldr	w0, [sp, #4]
	.loc	4 63 91
	ldp	x29, x30, [sp, #16]
	add	sp, sp, #32
	ret
Ltmp15:
Lfunc_end4:
	.cfi_endproc

	.p2align	2
__ZN3std3sys4unix7process14process_common8ExitCode6as_i3217hdcb9bc23ce83be19E:
Lfunc_begin5:
	.file	5 "/private/tmp/rust-20211101-73771-1w3cv5q/rustc-1.56.1-src/library/std/src/sys/unix/process/process_common.rs"
	.loc	5 468 0 is_stmt 1
	.cfi_startproc
	sub	sp, sp, #16
	.cfi_def_cfa_offset 16
	mov	x8, x0
	str	x8, [sp, #8]
Ltmp17:
	.loc	5 469 9 prologue_end
	ldrb	w0, [x0]
	.loc	5 470 6
	add	sp, sp, #16
	ret
Ltmp18:
Lfunc_end5:
	.cfi_endproc

	.p2align	2
__ZN4core3fmt9Arguments6new_v117h1aa5a50ccef83b92E:
Lfunc_begin6:
	.file	6 "/private/tmp/rust-20211101-73771-1w3cv5q/rustc-1.56.1-src/library/core/src/fmt/mod.rs"
	.loc	6 341 0
	.cfi_startproc
	sub	sp, sp, #112
	stp	x29, x30, [sp, #96]
	add	x29, sp, #96
	.cfi_def_cfa w29, 16
	.cfi_offset w30, -8
	.cfi_offset w29, -16
	str	x8, [sp]
	str	x0, [sp, #8]
	str	x1, [sp, #16]
	str	x2, [sp, #24]
	str	x3, [sp, #32]
	stur	x0, [x29, #-32]
	stur	x1, [x29, #-24]
	stur	x2, [x29, #-16]
	stur	x3, [x29, #-8]
Ltmp19:
	.loc	6 345 12 prologue_end
	subs	x8, x1, x3
	b.lo	LBB6_2
	.loc	6 0 12 is_stmt 0
	ldr	x8, [sp, #16]
	ldr	x9, [sp, #32]
	.loc	6 345 56
	add	x9, x9, #1
	.loc	6 345 41
	subs	x8, x8, x9
	cset	w8, hi
	.loc	6 345 12
	and	w8, w8, #0x1
	strb	w8, [sp, #47]
	b	LBB6_3
LBB6_2:
	.loc	6 0 12
	mov	w8, #1
	.loc	6 345 12
	strb	w8, [sp, #47]
LBB6_3:
	ldrb	w8, [sp, #47]
	tbnz	w8, #0, LBB6_5
	.loc	6 0 12
	ldr	x8, [sp, #32]
	ldr	x11, [sp]
	ldr	x10, [sp, #24]
	ldr	x9, [sp, #16]
	ldr	x12, [sp, #8]
	.loc	6 348 34 is_stmt 1
	str	xzr, [sp, #48]
	str	xzr, [sp, #56]
	str	xzr, [sp, #48]
	.loc	6 348 9 is_stmt 0
	str	x12, [x11]
	str	x9, [x11, #8]
	add	x12, x11, #16
	ldr	x13, [sp, #48]
	ldr	x9, [sp, #56]
	str	x13, [x11, #16]
	str	x9, [x12, #8]
	add	x9, x11, #32
	str	x10, [x11, #32]
	str	x8, [x9, #8]
	.loc	6 349 6 is_stmt 1
	ldp	x29, x30, [sp, #96]
	add	sp, sp, #112
	ret
LBB6_5:
	.loc	6 0 0 is_stmt 0
	adrp	x0, l___unnamed_2@PAGE
	add	x0, x0, l___unnamed_2@PAGEOFF
	mov	w8, #12
	mov	x1, x8
	adrp	x2, l___unnamed_3@PAGE
	add	x2, x2, l___unnamed_3@PAGEOFF
	.loc	6 346 13 is_stmt 1
	bl	__ZN4core9panicking5panic17hb7c769f64780039bE
Ltmp20:
Lfunc_end6:
	.cfi_endproc

	.p2align	2
__ZN4core3num7nonzero12NonZeroUsize13new_unchecked17hf775c2e5721613b3E:
Lfunc_begin7:
	.file	7 "/private/tmp/rust-20211101-73771-1w3cv5q/rustc-1.56.1-src/library/core/src/num/nonzero.rs"
	.loc	7 54 0
	.cfi_startproc
	sub	sp, sp, #16
	.cfi_def_cfa_offset 16
	str	x0, [sp, #8]
Ltmp22:
	.loc	7 56 30 prologue_end
	str	x0, [sp]
	.loc	7 57 18
	ldr	x0, [sp]
	add	sp, sp, #16
	ret
Ltmp23:
Lfunc_end7:
	.cfi_endproc

	.p2align	2
__ZN4core3num7nonzero12NonZeroUsize3get17h1cce875fc7918522E:
Lfunc_begin8:
	.loc	7 76 0
	.cfi_startproc
	sub	sp, sp, #16
	.cfi_def_cfa_offset 16
	str	x0, [sp, #8]
Ltmp25:
	.loc	7 78 18 prologue_end
	add	sp, sp, #16
	ret
Ltmp26:
Lfunc_end8:
	.cfi_endproc

	.p2align	2
__ZN4core3ops8function6FnOnce40call_once$u7b$$u7b$vtable.shim$u7d$$u7d$17h5f75351d3a7c752aE:
Lfunc_begin9:
	.file	8 "/private/tmp/rust-20211101-73771-1w3cv5q/rustc-1.56.1-src/library/core/src/ops/function.rs"
	.loc	8 227 0
	.cfi_startproc
	sub	sp, sp, #32
	stp	x29, x30, [sp, #16]
	add	x29, sp, #16
	.cfi_def_cfa w29, 16
	.cfi_offset w30, -8
	.cfi_offset w29, -16
	mov	x8, x0
	str	x8, [sp, #8]
Ltmp27:
	.loc	8 227 5 prologue_end
	ldr	x0, [x0]
	bl	__ZN4core3ops8function6FnOnce9call_once17hcd9bf445dc92b8f6E
	str	w0, [sp]
	.loc	8 0 5 is_stmt 0
	ldr	w0, [sp]
	.loc	8 227 5
	ldp	x29, x30, [sp, #16]
	add	sp, sp, #32
	ret
Ltmp28:
Lfunc_end9:
	.cfi_endproc

	.p2align	2
__ZN4core3ops8function6FnOnce9call_once17h5317096b74ee7890E:
Lfunc_begin10:
	.loc	8 227 0 is_stmt 1
	.cfi_startproc
	sub	sp, sp, #32
	stp	x29, x30, [sp, #16]
	add	x29, sp, #16
	.cfi_def_cfa w29, 16
	.cfi_offset w30, -8
	.cfi_offset w29, -16
	str	x0, [sp, #8]
Ltmp29:
	.loc	8 227 5 prologue_end
	blr	x0
	ldp	x29, x30, [sp, #16]
	add	sp, sp, #32
	ret
Ltmp30:
Lfunc_end10:
	.cfi_endproc

	.p2align	2
__ZN4core3ops8function6FnOnce9call_once17hcd9bf445dc92b8f6E:
Lfunc_begin11:
	.loc	8 227 0
	.cfi_startproc
	.cfi_personality 155, _rust_eh_personality
	.cfi_lsda 16, Lexception1
	sub	sp, sp, #64
	stp	x29, x30, [sp, #48]
	add	x29, sp, #48
	.cfi_def_cfa w29, 16
	.cfi_offset w30, -8
	.cfi_offset w29, -16
	mov	x8, x0
	add	x0, sp, #16
	str	x8, [sp, #16]
Ltmp31:
Ltmp34:
	.loc	8 227 5 prologue_end
	bl	__ZN3std2rt10lang_start28_$u7b$$u7b$closure$u7d$$u7d$17h8631bf89876d8874E
	str	w0, [sp, #12]
Ltmp32:
	b	LBB11_5
LBB11_2:
	b	LBB11_4
LBB11_3:
Ltmp33:
	.loc	8 0 5 is_stmt 0
	mov	x8, x1
	stur	x0, [x29, #-16]
	stur	w8, [x29, #-8]
	b	LBB11_2
LBB11_4:
	.loc	8 227 5
	ldur	x0, [x29, #-16]
	bl	__Unwind_Resume
LBB11_5:
	.loc	8 0 5
	ldr	w0, [sp, #12]
	.loc	8 227 5
	ldp	x29, x30, [sp, #48]
	add	sp, sp, #64
	ret
Ltmp35:
Lfunc_end11:
	.cfi_endproc
	.section	__TEXT,__gcc_except_tab
	.p2align	2
GCC_except_table11:
Lexception1:
	.byte	255
	.byte	255
	.byte	1
	.uleb128 Lcst_end1-Lcst_begin1
Lcst_begin1:
	.uleb128 Ltmp31-Lfunc_begin11
	.uleb128 Ltmp32-Ltmp31
	.uleb128 Ltmp33-Lfunc_begin11
	.byte	0
	.uleb128 Ltmp32-Lfunc_begin11
	.uleb128 Lfunc_end11-Ltmp32
	.byte	0
	.byte	0
Lcst_end1:
	.p2align	2

	.section	__TEXT,__text,regular,pure_instructions
	.p2align	2
__ZN4core3pin24Pin$LT$$RF$mut$u20$T$GT$17map_unchecked_mut17h7f97b117e8cada4fE:
Lfunc_begin12:
	.file	9 "/private/tmp/rust-20211101-73771-1w3cv5q/rustc-1.56.1-src/library/core/src/pin.rs"
	.loc	9 776 0 is_stmt 1
	.cfi_startproc
	.cfi_personality 155, _rust_eh_personality
	.cfi_lsda 16, Lexception2
	sub	sp, sp, #128
	stp	x29, x30, [sp, #112]
	add	x29, sp, #112
	.cfi_def_cfa w29, 16
	.cfi_offset w30, -8
	.cfi_offset w29, -16
	str	x0, [sp, #16]
	mov	x8, x0
	str	x8, [sp, #40]
Ltmp39:
	.loc	9 783 13 prologue_end
	strb	wzr, [sp, #39]
	mov	w8, #1
	strb	w8, [sp, #39]
	stur	x0, [x29, #-24]
	.loc	9 0 13 is_stmt 0
	ldr	x8, [sp, #16]
	.loc	9 783 32
	mov	x9, x8
	stur	x9, [x29, #-40]
Ltmp40:
	.loc	9 784 27 is_stmt 1
	strb	wzr, [sp, #39]
	str	x8, [sp, #24]
	ldr	x0, [sp, #24]
Ltmp36:
	bl	__ZN97_$LT$core..future..from_generator..GenFuture$LT$T$GT$$u20$as$u20$core..future..future..Future$GT$4poll28_$u7b$$u7b$closure$u7d$$u7d$17hffc80c4c2922dc11E
	str	x0, [sp, #8]
Ltmp37:
	b	LBB12_4
Ltmp41:
LBB12_2:
	.loc	9 788 5
	ldrb	w8, [sp, #39]
	tbnz	w8, #0, LBB12_7
	b	LBB12_6
LBB12_3:
Ltmp38:
	.loc	9 0 5 is_stmt 0
	mov	x8, x1
	str	x0, [sp, #56]
	str	w8, [sp, #64]
	b	LBB12_2
LBB12_4:
	ldr	x8, [sp, #8]
Ltmp42:
	.loc	9 784 27 is_stmt 1
	mov	x9, x8
	stur	x9, [x29, #-32]
	mov	x9, x8
	stur	x9, [x29, #-8]
Ltmp43:
	.loc	9 572 9
	stur	x8, [x29, #-16]
	.loc	9 573 6
	ldur	x8, [x29, #-16]
	str	x8, [sp]
Ltmp44:
	.loc	9 0 6 is_stmt 0
	ldr	x0, [sp]
	.loc	9 788 6 is_stmt 1
	ldp	x29, x30, [sp, #112]
	add	sp, sp, #128
	ret
LBB12_6:
	.loc	9 776 5
	ldr	x0, [sp, #56]
	bl	__Unwind_Resume
LBB12_7:
	.loc	9 788 5
	b	LBB12_6
Ltmp45:
Lfunc_end12:
	.cfi_endproc
	.file	10 "/Users/matthewevers/Documents/git_repos/gist_docs/async_implementations/async_rust/main.rs"
	.section	__TEXT,__gcc_except_tab
	.p2align	2
GCC_except_table12:
Lexception2:
	.byte	255
	.byte	255
	.byte	1
	.uleb128 Lcst_end2-Lcst_begin2
Lcst_begin2:
	.uleb128 Ltmp36-Lfunc_begin12
	.uleb128 Ltmp37-Ltmp36
	.uleb128 Ltmp38-Lfunc_begin12
	.byte	0
	.uleb128 Ltmp37-Lfunc_begin12
	.uleb128 Lfunc_end12-Ltmp37
	.byte	0
	.byte	0
Lcst_end2:
	.p2align	2

	.section	__TEXT,__text,regular,pure_instructions
	.p2align	2
__ZN4core3ptr145drop_in_place$LT$alloc..boxed..Box$LT$core..future..from_generator..GenFuture$LT$async_rust..hello_world..$u7b$$u7b$closure$u7d$$u7d$$GT$$GT$$GT$17ha72e7c397e0e75b2E:
Lfunc_begin13:
	.file	11 "/private/tmp/rust-20211101-73771-1w3cv5q/rustc-1.56.1-src/library/core/src/ptr/mod.rs"
	.loc	11 188 0
	.cfi_startproc
	sub	sp, sp, #48
	stp	x29, x30, [sp, #32]
	add	x29, sp, #32
	.cfi_def_cfa w29, 16
	.cfi_offset w30, -8
	.cfi_offset w29, -16
	str	x0, [sp]
	str	x0, [sp, #8]
	ldr	x8, [sp]
Ltmp46:
	.loc	11 188 1 prologue_end
	ldr	x0, [x8]
	bl	__ZN5alloc5alloc8box_free17h4a8ead4d33002f26E
	ldp	x29, x30, [sp, #32]
	add	sp, sp, #48
	ret
Ltmp47:
Lfunc_end13:
	.cfi_endproc

	.p2align	2
__ZN4core3ptr167drop_in_place$LT$core..pin..Pin$LT$alloc..boxed..Box$LT$core..future..from_generator..GenFuture$LT$async_rust..hello_world..$u7b$$u7b$closure$u7d$$u7d$$GT$$GT$$GT$$GT$17h38f4fb4b69236da5E:
Lfunc_begin14:
	.loc	11 188 0
	.cfi_startproc
	sub	sp, sp, #32
	stp	x29, x30, [sp, #16]
	add	x29, sp, #16
	.cfi_def_cfa w29, 16
	.cfi_offset w30, -8
	.cfi_offset w29, -16
	mov	x8, x0
	str	x8, [sp, #8]
Ltmp48:
	.loc	11 188 1 prologue_end
	bl	__ZN4core3ptr145drop_in_place$LT$alloc..boxed..Box$LT$core..future..from_generator..GenFuture$LT$async_rust..hello_world..$u7b$$u7b$closure$u7d$$u7d$$GT$$GT$$GT$17ha72e7c397e0e75b2E
	ldp	x29, x30, [sp, #16]
	add	sp, sp, #32
	ret
Ltmp49:
Lfunc_end14:
	.cfi_endproc

	.p2align	2
__ZN4core3ptr24slice_from_raw_parts_mut17h1c98d03eff763adfE:
Lfunc_begin15:
	.loc	11 289 0
	.cfi_startproc
	sub	sp, sp, #80
	stp	x29, x30, [sp, #64]
	add	x29, sp, #64
	.cfi_def_cfa w29, 16
	.cfi_offset w30, -8
	.cfi_offset w29, -16
	str	x0, [sp, #24]
	str	x1, [sp, #32]
	mov	x8, x0
	stur	x8, [x29, #-24]
	stur	x1, [x29, #-16]
	stur	x0, [x29, #-8]
	ldr	x1, [sp, #32]
	ldr	x0, [sp, #24]
Ltmp50:
	.loc	11 290 5 prologue_end
	bl	__ZN4core3ptr8metadata18from_raw_parts_mut17h40027e1ca98b573aE
	str	x0, [sp, #8]
	str	x1, [sp, #16]
	.loc	11 0 5 is_stmt 0
	ldr	x1, [sp, #16]
	ldr	x0, [sp, #8]
	.loc	11 291 2 is_stmt 1
	ldp	x29, x30, [sp, #64]
	add	sp, sp, #80
	ret
Ltmp51:
Lfunc_end15:
	.cfi_endproc

	.p2align	2
__ZN4core3ptr44drop_in_place$LT$core..task..wake..Waker$GT$17h6ca63b67f9cdd519E:
Lfunc_begin16:
	.loc	11 188 0
	.cfi_startproc
	sub	sp, sp, #32
	stp	x29, x30, [sp, #16]
	add	x29, sp, #16
	.cfi_def_cfa w29, 16
	.cfi_offset w30, -8
	.cfi_offset w29, -16
	mov	x8, x0
	str	x8, [sp, #8]
Ltmp52:
	.loc	11 188 1 prologue_end
	bl	__ZN65_$LT$core..task..wake..Waker$u20$as$u20$core..ops..drop..Drop$GT$4drop17ha53cde19e8132e08E
	ldp	x29, x30, [sp, #16]
	add	sp, sp, #32
	ret
Ltmp53:
Lfunc_end16:
	.cfi_endproc

	.p2align	2
__ZN4core3ptr6unique15Unique$LT$T$GT$13new_unchecked17h05917b70fbd4e0a1E:
Lfunc_begin17:
	.file	12 "/private/tmp/rust-20211101-73771-1w3cv5q/rustc-1.56.1-src/library/core/src/ptr/unique.rs"
	.loc	12 87 0
	.cfi_startproc
	sub	sp, sp, #16
	.cfi_def_cfa_offset 16
	mov	x8, x0
	str	x8, [sp, #8]
Ltmp55:
	.loc	12 89 18 prologue_end
	str	x0, [sp]
	.loc	12 90 6
	ldr	x0, [sp]
	add	sp, sp, #16
	ret
Ltmp56:
Lfunc_end17:
	.cfi_endproc

	.p2align	2
__ZN4core3ptr6unique15Unique$LT$T$GT$4cast17h472487cc0ce88de2E:
Lfunc_begin18:
	.loc	12 135 0
	.cfi_startproc
	sub	sp, sp, #48
	stp	x29, x30, [sp, #32]
	add	x29, sp, #32
	.cfi_def_cfa w29, 16
	.cfi_offset w30, -8
	.cfi_offset w29, -16
	mov	x8, x0
	stur	x8, [x29, #-8]
Ltmp57:
	.loc	12 139 40 prologue_end
	bl	__ZN4core3ptr6unique15Unique$LT$T$GT$6as_ptr17hee7c32aeefb1537aE
	str	x0, [sp, #16]
	.loc	12 0 40 is_stmt 0
	ldr	x0, [sp, #16]
	.loc	12 139 18
	bl	__ZN4core3ptr6unique15Unique$LT$T$GT$13new_unchecked17h05917b70fbd4e0a1E
	str	x0, [sp, #8]
	.loc	12 0 18
	ldr	x0, [sp, #8]
	.loc	12 140 6 is_stmt 1
	ldp	x29, x30, [sp, #32]
	add	sp, sp, #48
	ret
Ltmp58:
Lfunc_end18:
	.cfi_endproc

	.p2align	2
__ZN4core3ptr6unique15Unique$LT$T$GT$6as_ptr17h80aebaf371a1b871E:
Lfunc_begin19:
	.loc	12 105 0
	.cfi_startproc
	sub	sp, sp, #16
	.cfi_def_cfa_offset 16
	mov	x8, x0
	str	x8, [sp, #8]
Ltmp60:
	.loc	12 107 6 prologue_end
	add	sp, sp, #16
	ret
Ltmp61:
Lfunc_end19:
	.cfi_endproc

	.p2align	2
__ZN4core3ptr6unique15Unique$LT$T$GT$6as_ptr17hee7c32aeefb1537aE:
Lfunc_begin20:
	.loc	12 105 0
	.cfi_startproc
	sub	sp, sp, #16
	.cfi_def_cfa_offset 16
	mov	x8, x0
	str	x8, [sp, #8]
Ltmp63:
	.loc	12 107 6 prologue_end
	add	sp, sp, #16
	ret
Ltmp64:
Lfunc_end20:
	.cfi_endproc

	.p2align	2
__ZN4core3ptr6unique15Unique$LT$T$GT$6as_ref17h864895785f0c6c1cE:
Lfunc_begin21:
	.loc	12 115 0
	.cfi_startproc
	sub	sp, sp, #32
	stp	x29, x30, [sp, #16]
	add	x29, sp, #16
	.cfi_def_cfa w29, 16
	.cfi_offset w30, -8
	.cfi_offset w29, -16
	mov	x8, x0
	str	x8, [sp, #8]
Ltmp65:
	.loc	12 118 20 prologue_end
	ldr	x0, [x0]
	bl	__ZN4core3ptr6unique15Unique$LT$T$GT$6as_ptr17hee7c32aeefb1537aE
	str	x0, [sp]
	.loc	12 0 20 is_stmt 0
	ldr	x0, [sp]
	.loc	12 119 6 is_stmt 1
	ldp	x29, x30, [sp, #16]
	add	sp, sp, #32
	ret
Ltmp66:
Lfunc_end21:
	.cfi_endproc

	.p2align	2
__ZN4core3ptr7mut_ptr31_$LT$impl$u20$$BP$mut$u20$T$GT$13guaranteed_eq17h33115314b53d7c1aE:
Lfunc_begin22:
	.file	13 "/private/tmp/rust-20211101-73771-1w3cv5q/rustc-1.56.1-src/library/core/src/ptr/mut_ptr.rs"
	.loc	13 433 0
	.cfi_startproc
	sub	sp, sp, #32
	.cfi_def_cfa_offset 32
	str	x0, [sp, #8]
	str	x1, [sp, #16]
Ltmp68:
	.loc	13 437 9 prologue_end
	subs	x8, x0, x1
	cset	w8, eq
	and	w8, w8, #0x1
	strb	w8, [sp, #31]
	ldrb	w8, [sp, #31]
	str	w8, [sp, #4]
	.loc	13 0 9 is_stmt 0
	ldr	w8, [sp, #4]
	.loc	13 438 6 is_stmt 1
	and	w0, w8, #0x1
	add	sp, sp, #32
	ret
Ltmp69:
Lfunc_end22:
	.cfi_endproc

	.p2align	2
__ZN4core3ptr7mut_ptr31_$LT$impl$u20$$BP$mut$u20$T$GT$7is_null17he0066f658a5263f6E:
Lfunc_begin23:
	.loc	13 36 0
	.cfi_startproc
	sub	sp, sp, #48
	stp	x29, x30, [sp, #32]
	add	x29, sp, #32
	.cfi_def_cfa w29, 16
	.cfi_offset w30, -8
	.cfi_offset w29, -16
	str	x0, [sp, #16]
	stur	x0, [x29, #-8]
	ldr	x0, [sp, #16]
	mov	x1, #0
Ltmp70:
	.loc	13 39 9 prologue_end
	bl	__ZN4core3ptr7mut_ptr31_$LT$impl$u20$$BP$mut$u20$T$GT$13guaranteed_eq17h33115314b53d7c1aE
	str	w0, [sp, #12]
	.loc	13 0 9 is_stmt 0
	ldr	w8, [sp, #12]
	.loc	13 40 6 is_stmt 1
	and	w0, w8, #0x1
	ldp	x29, x30, [sp, #32]
	add	sp, sp, #48
	ret
Ltmp71:
Lfunc_end23:
	.cfi_endproc

	.p2align	2
__ZN4core3ptr85drop_in_place$LT$std..rt..lang_start$LT$$LP$$RP$$GT$..$u7b$$u7b$closure$u7d$$u7d$$GT$17h5ede20698f26fdc2E:
Lfunc_begin24:
	.loc	11 188 0
	.cfi_startproc
	sub	sp, sp, #16
	.cfi_def_cfa_offset 16
	str	x0, [sp, #8]
Ltmp73:
	.loc	11 188 1 prologue_end
	add	sp, sp, #16
	ret
Ltmp74:
Lfunc_end24:
	.cfi_endproc

	.p2align	2
__ZN4core3ptr8metadata18from_raw_parts_mut17h40027e1ca98b573aE:
Lfunc_begin25:
	.file	14 "/private/tmp/rust-20211101-73771-1w3cv5q/rustc-1.56.1-src/library/core/src/ptr/metadata.rs"
	.loc	14 127 0
	.cfi_startproc
	sub	sp, sp, #48
	.cfi_def_cfa_offset 48
	mov	x8, x0
	str	x8, [sp, #32]
	str	x1, [sp, #40]
Ltmp76:
	.loc	14 134 36 prologue_end
	str	x0, [sp, #16]
	str	x1, [sp, #24]
	.loc	14 134 14 is_stmt 0
	ldr	x9, [sp, #16]
	ldr	x8, [sp, #24]
	str	x9, [sp]
	str	x8, [sp, #8]
	ldr	x0, [sp]
	ldr	x1, [sp, #8]
	.loc	14 135 2 is_stmt 1
	add	sp, sp, #48
	ret
Ltmp77:
Lfunc_end25:
	.cfi_endproc

	.p2align	2
__ZN4core3ptr8non_null16NonNull$LT$T$GT$13new_unchecked17h12a06564baabf954E:
Lfunc_begin26:
	.loc	1 189 0
	.cfi_startproc
	sub	sp, sp, #32
	.cfi_def_cfa_offset 32
	mov	x8, x0
	str	x8, [sp, #16]
	str	x1, [sp, #24]
Ltmp79:
	.loc	1 191 18 prologue_end
	str	x0, [sp]
	str	x1, [sp, #8]
	.loc	1 192 6
	ldr	x0, [sp]
	ldr	x1, [sp, #8]
	add	sp, sp, #32
	ret
Ltmp80:
Lfunc_end26:
	.cfi_endproc

	.p2align	2
__ZN4core3ptr8non_null16NonNull$LT$T$GT$13new_unchecked17h601344c6c19579fcE:
Lfunc_begin27:
	.loc	1 189 0
	.cfi_startproc
	sub	sp, sp, #16
	.cfi_def_cfa_offset 16
	mov	x8, x0
	str	x8, [sp, #8]
Ltmp82:
	.loc	1 191 18 prologue_end
	str	x0, [sp]
	.loc	1 192 6
	ldr	x0, [sp]
	add	sp, sp, #16
	ret
Ltmp83:
Lfunc_end27:
	.cfi_endproc

	.p2align	2
__ZN4core3ptr8non_null16NonNull$LT$T$GT$13new_unchecked17he3df3d19b397b81bE:
Lfunc_begin28:
	.loc	1 189 0
	.cfi_startproc
	sub	sp, sp, #16
	.cfi_def_cfa_offset 16
	mov	x8, x0
	str	x8, [sp, #8]
Ltmp85:
	.loc	1 191 18 prologue_end
	str	x0, [sp]
	.loc	1 192 6
	ldr	x0, [sp]
	add	sp, sp, #16
	ret
Ltmp86:
Lfunc_end28:
	.cfi_endproc

	.p2align	2
__ZN4core3ptr8non_null16NonNull$LT$T$GT$3new17h910156f3dfd3faa0E:
Lfunc_begin29:
	.loc	1 210 0
	.cfi_startproc
	sub	sp, sp, #64
	stp	x29, x30, [sp, #48]
	add	x29, sp, #48
	.cfi_def_cfa w29, 16
	.cfi_offset w30, -8
	.cfi_offset w29, -16
	str	x0, [sp, #16]
	mov	x8, x0
	stur	x8, [x29, #-8]
Ltmp87:
	.loc	1 211 13 prologue_end
	bl	__ZN4core3ptr7mut_ptr31_$LT$impl$u20$$BP$mut$u20$T$GT$7is_null17he0066f658a5263f6E
	stur	w0, [x29, #-20]
	.loc	1 0 13 is_stmt 0
	ldur	w8, [x29, #-20]
	.loc	1 211 12
	tbz	w8, #0, LBB29_3
	.loc	1 215 13 is_stmt 1
	stur	xzr, [x29, #-16]
	stur	xzr, [x29, #-16]
	.loc	1 211 9
	b	LBB29_5
LBB29_3:
	.loc	1 0 9 is_stmt 0
	ldr	x0, [sp, #16]
	.loc	1 213 27 is_stmt 1
	bl	__ZN4core3ptr8non_null16NonNull$LT$T$GT$13new_unchecked17he3df3d19b397b81bE
	str	x0, [sp, #8]
	.loc	1 0 27 is_stmt 0
	ldr	x8, [sp, #8]
	.loc	1 213 13
	stur	x8, [x29, #-16]
LBB29_5:
	.loc	1 217 6 is_stmt 1
	ldur	x0, [x29, #-16]
	ldp	x29, x30, [sp, #48]
	add	sp, sp, #64
	ret
Ltmp88:
Lfunc_end29:
	.cfi_endproc

	.p2align	2
__ZN4core3ptr8non_null16NonNull$LT$T$GT$4cast17h17c2198157599c92E:
Lfunc_begin30:
	.loc	1 385 0
	.cfi_startproc
	sub	sp, sp, #48
	stp	x29, x30, [sp, #32]
	add	x29, sp, #32
	.cfi_def_cfa w29, 16
	.cfi_offset w30, -8
	.cfi_offset w29, -16
	mov	x8, x0
	stur	x8, [x29, #-8]
Ltmp89:
	.loc	1 387 41 prologue_end
	bl	__ZN4core3ptr8non_null16NonNull$LT$T$GT$6as_ptr17hd38f4c30c0692c48E
	str	x0, [sp, #16]
	.loc	1 0 41 is_stmt 0
	ldr	x0, [sp, #16]
	.loc	1 387 18
	bl	__ZN4core3ptr8non_null16NonNull$LT$T$GT$13new_unchecked17h601344c6c19579fcE
	str	x0, [sp, #8]
	.loc	1 0 18
	ldr	x0, [sp, #8]
	.loc	1 388 6 is_stmt 1
	ldp	x29, x30, [sp, #32]
	add	sp, sp, #48
	ret
Ltmp90:
Lfunc_end30:
	.cfi_endproc

	.p2align	2
__ZN4core3ptr8non_null16NonNull$LT$T$GT$6as_ptr17h717a13f3c290e288E:
Lfunc_begin31:
	.loc	1 268 0
	.cfi_startproc
	sub	sp, sp, #16
	.cfi_def_cfa_offset 16
	mov	x8, x0
	str	x8, [sp, #8]
Ltmp92:
	.loc	1 270 6 prologue_end
	add	sp, sp, #16
	ret
Ltmp93:
Lfunc_end31:
	.cfi_endproc

	.p2align	2
__ZN4core3ptr8non_null16NonNull$LT$T$GT$6as_ptr17hc9b8a2e41893fbacE:
Lfunc_begin32:
	.loc	1 268 0
	.cfi_startproc
	sub	sp, sp, #16
	.cfi_def_cfa_offset 16
	mov	x8, x0
	str	x8, [sp]
	str	x1, [sp, #8]
Ltmp95:
	.loc	1 270 6 prologue_end
	add	sp, sp, #16
	ret
Ltmp96:
Lfunc_end32:
	.cfi_endproc

	.p2align	2
__ZN4core3ptr8non_null16NonNull$LT$T$GT$6as_ptr17hd38f4c30c0692c48E:
Lfunc_begin33:
	.loc	1 268 0
	.cfi_startproc
	sub	sp, sp, #16
	.cfi_def_cfa_offset 16
	mov	x8, x0
	str	x8, [sp, #8]
Ltmp98:
	.loc	1 270 6 prologue_end
	add	sp, sp, #16
	ret
Ltmp99:
Lfunc_end33:
	.cfi_endproc

	.p2align	2
__ZN4core3ptr8non_null26NonNull$LT$$u5b$T$u5d$$GT$10as_mut_ptr17h0058dd3c359f645cE:
Lfunc_begin34:
	.loc	1 479 0
	.cfi_startproc
	sub	sp, sp, #48
	stp	x29, x30, [sp, #32]
	add	x29, sp, #32
	.cfi_def_cfa w29, 16
	.cfi_offset w30, -8
	.cfi_offset w29, -16
	mov	x8, x0
	str	x8, [sp, #16]
	str	x1, [sp, #24]
Ltmp100:
	.loc	1 480 9 prologue_end
	bl	__ZN4core3ptr8non_null26NonNull$LT$$u5b$T$u5d$$GT$15as_non_null_ptr17ha3df088a8fbf334fE
	str	x0, [sp, #8]
	.loc	1 0 9 is_stmt 0
	ldr	x0, [sp, #8]
	.loc	1 480 9
	bl	__ZN4core3ptr8non_null16NonNull$LT$T$GT$6as_ptr17h717a13f3c290e288E
	str	x0, [sp]
	.loc	1 0 9
	ldr	x0, [sp]
	.loc	1 481 6 is_stmt 1
	ldp	x29, x30, [sp, #32]
	add	sp, sp, #48
	ret
Ltmp101:
Lfunc_end34:
	.cfi_endproc

	.p2align	2
__ZN4core3ptr8non_null26NonNull$LT$$u5b$T$u5d$$GT$15as_non_null_ptr17ha3df088a8fbf334fE:
Lfunc_begin35:
	.loc	1 460 0
	.cfi_startproc
	sub	sp, sp, #80
	stp	x29, x30, [sp, #64]
	add	x29, sp, #64
	.cfi_def_cfa w29, 16
	.cfi_offset w30, -8
	.cfi_offset w29, -16
	mov	x8, x0
	str	x8, [sp, #32]
	str	x1, [sp, #40]
Ltmp102:
	.loc	1 462 41 prologue_end
	bl	__ZN4core3ptr8non_null16NonNull$LT$T$GT$6as_ptr17hc9b8a2e41893fbacE
	str	x0, [sp, #16]
	str	x1, [sp, #24]
	.loc	1 0 41 is_stmt 0
	ldr	x8, [sp, #24]
	ldr	x9, [sp, #16]
	stur	x9, [x29, #-16]
	stur	x8, [x29, #-8]
	ldr	x0, [sp, #16]
	.loc	1 462 18
	bl	__ZN4core3ptr8non_null16NonNull$LT$T$GT$13new_unchecked17he3df3d19b397b81bE
	str	x0, [sp, #8]
	.loc	1 0 18
	ldr	x0, [sp, #8]
	.loc	1 463 6 is_stmt 1
	ldp	x29, x30, [sp, #64]
	add	sp, sp, #80
	ret
Ltmp103:
Lfunc_end35:
	.cfi_endproc

	.p2align	2
__ZN4core3ptr8non_null26NonNull$LT$$u5b$T$u5d$$GT$20slice_from_raw_parts17h8dac679a39d00249E:
Lfunc_begin36:
	.loc	1 418 0
	.cfi_startproc
	sub	sp, sp, #80
	stp	x29, x30, [sp, #64]
	add	x29, sp, #64
	.cfi_def_cfa w29, 16
	.cfi_offset w30, -8
	.cfi_offset w29, -16
	str	x1, [sp, #32]
	mov	x8, x0
	stur	x8, [x29, #-16]
	stur	x1, [x29, #-8]
Ltmp104:
	.loc	1 420 70 prologue_end
	bl	__ZN4core3ptr8non_null16NonNull$LT$T$GT$6as_ptr17h717a13f3c290e288E
	stur	x0, [x29, #-24]
	.loc	1 0 70 is_stmt 0
	ldr	x1, [sp, #32]
	ldur	x0, [x29, #-24]
	.loc	1 420 38
	bl	__ZN4core3ptr24slice_from_raw_parts_mut17h1c98d03eff763adfE
	str	x0, [sp, #16]
	str	x1, [sp, #24]
	.loc	1 0 38
	ldr	x1, [sp, #24]
	ldr	x0, [sp, #16]
	.loc	1 420 18
	bl	__ZN4core3ptr8non_null16NonNull$LT$T$GT$13new_unchecked17h12a06564baabf954E
	str	x0, [sp]
	str	x1, [sp, #8]
	.loc	1 0 18
	ldr	x1, [sp, #8]
	ldr	x0, [sp]
	.loc	1 421 6 is_stmt 1
	ldp	x29, x30, [sp, #64]
	add	sp, sp, #80
	ret
Ltmp105:
Lfunc_end36:
	.cfi_endproc

	.p2align	2
__ZN4core4hint9black_box17hc1e001d0a8b5afc8E:
Lfunc_begin37:
	.file	15 "/private/tmp/rust-20211101-73771-1w3cv5q/rustc-1.56.1-src/library/core/src/hint.rs"
	.loc	15 159 0
	.cfi_startproc
	sub	sp, sp, #16
	.cfi_def_cfa_offset 16
Ltmp107:
	.loc	15 169 9 prologue_end
	; InlineAsm Start
	; InlineAsm End
	.loc	15 171 2
	add	sp, sp, #16
	ret
Ltmp108:
Lfunc_end37:
	.cfi_endproc

	.p2align	2
__ZN4core4task4wake5Waker8from_raw17h73b699292d4176dfE:
Lfunc_begin38:
	.file	16 "/private/tmp/rust-20211101-73771-1w3cv5q/rustc-1.56.1-src/library/core/src/task/wake.rs"
	.loc	16 255 0
	.cfi_startproc
	sub	sp, sp, #32
	.cfi_def_cfa_offset 32
	mov	x8, x0
	str	x8, [sp, #16]
	mov	x8, x1
	str	x8, [sp, #24]
Ltmp110:
	.loc	16 256 9 prologue_end
	str	x0, [sp]
	str	x1, [sp, #8]
	.loc	16 257 6
	ldr	x0, [sp]
	ldr	x1, [sp, #8]
	add	sp, sp, #32
	ret
Ltmp111:
Lfunc_end38:
	.cfi_endproc

	.p2align	2
__ZN4core4task4wake7Context10from_waker17hd3b3ad236c36f9e4E:
Lfunc_begin39:
	.loc	16 162 0
	.cfi_startproc
	sub	sp, sp, #16
	.cfi_def_cfa_offset 16
	mov	x8, x0
	str	x8, [sp, #8]
Ltmp113:
	.loc	16 163 9 prologue_end
	str	x0, [sp]
	.loc	16 164 6
	ldr	x0, [sp]
	add	sp, sp, #16
	ret
Ltmp114:
Lfunc_end39:
	.cfi_endproc

	.p2align	2
__ZN4core4task4wake8RawWaker3new17h6db9dfb4d61bbf39E:
Lfunc_begin40:
	.loc	16 42 0
	.cfi_startproc
	sub	sp, sp, #32
	.cfi_def_cfa_offset 32
	mov	x8, x0
	str	x8, [sp, #16]
	mov	x8, x1
	str	x8, [sp, #24]
Ltmp116:
	.loc	16 43 9 prologue_end
	str	x0, [sp]
	str	x1, [sp, #8]
	.loc	16 44 6
	ldr	x0, [sp]
	ldr	x1, [sp, #8]
	add	sp, sp, #32
	ret
Ltmp117:
Lfunc_end40:
	.cfi_endproc

	.p2align	2
__ZN4core5alloc6layout6Layout25from_size_align_unchecked17hb5cd4c6a665c5151E:
Lfunc_begin41:
	.file	17 "/private/tmp/rust-20211101-73771-1w3cv5q/rustc-1.56.1-src/library/core/src/alloc/layout.rs"
	.loc	17 98 0
	.cfi_startproc
	sub	sp, sp, #64
	stp	x29, x30, [sp, #48]
	add	x29, sp, #48
	.cfi_def_cfa w29, 16
	.cfi_offset w30, -8
	.cfi_offset w29, -16
	mov	x8, x0
	str	x8, [sp]
	mov	x0, x1
	stur	x8, [x29, #-16]
	stur	x0, [x29, #-8]
Ltmp118:
	.loc	17 100 48 prologue_end
	bl	__ZN4core3num7nonzero12NonZeroUsize13new_unchecked17hf775c2e5721613b3E
	str	x0, [sp, #8]
	.loc	17 0 48 is_stmt 0
	ldr	x8, [sp, #8]
	ldr	x9, [sp]
	.loc	17 100 9
	str	x9, [sp, #16]
	str	x8, [sp, #24]
	.loc	17 101 6 is_stmt 1
	ldr	x0, [sp, #16]
	ldr	x1, [sp, #24]
	ldp	x29, x30, [sp, #48]
	add	sp, sp, #64
	ret
Ltmp119:
Lfunc_end41:
	.cfi_endproc

	.p2align	2
__ZN4core5alloc6layout6Layout4size17h51d77739f1027a73E:
Lfunc_begin42:
	.loc	17 107 0
	.cfi_startproc
	sub	sp, sp, #16
	.cfi_def_cfa_offset 16
	mov	x8, x0
	str	x8, [sp, #8]
Ltmp121:
	.loc	17 108 9 prologue_end
	ldr	x0, [x0]
	.loc	17 109 6
	add	sp, sp, #16
	ret
Ltmp122:
Lfunc_end42:
	.cfi_endproc

	.p2align	2
__ZN4core5alloc6layout6Layout5align17he668ff25b6f7a98cE:
Lfunc_begin43:
	.loc	17 115 0
	.cfi_startproc
	sub	sp, sp, #32
	stp	x29, x30, [sp, #16]
	add	x29, sp, #16
	.cfi_def_cfa w29, 16
	.cfi_offset w30, -8
	.cfi_offset w29, -16
	mov	x8, x0
	str	x8, [sp, #8]
Ltmp123:
	.loc	17 116 9 prologue_end
	ldr	x0, [x0, #8]
	bl	__ZN4core3num7nonzero12NonZeroUsize3get17h1cce875fc7918522E
	str	x0, [sp]
	.loc	17 0 9 is_stmt 0
	ldr	x0, [sp]
	.loc	17 117 6 is_stmt 1
	ldp	x29, x30, [sp, #16]
	add	sp, sp, #32
	ret
Ltmp124:
Lfunc_end43:
	.cfi_endproc

	.p2align	2
__ZN4core5alloc6layout6Layout8dangling17h088bf93f04cb78bdE:
Lfunc_begin44:
	.loc	17 187 0
	.cfi_startproc
	sub	sp, sp, #48
	stp	x29, x30, [sp, #32]
	add	x29, sp, #32
	.cfi_def_cfa w29, 16
	.cfi_offset w30, -8
	.cfi_offset w29, -16
	mov	x8, x0
	stur	x8, [x29, #-8]
Ltmp125:
	.loc	17 189 41 prologue_end
	bl	__ZN4core5alloc6layout6Layout5align17he668ff25b6f7a98cE
	str	x0, [sp, #16]
	.loc	17 0 41 is_stmt 0
	ldr	x0, [sp, #16]
	.loc	17 189 18
	bl	__ZN4core3ptr8non_null16NonNull$LT$T$GT$13new_unchecked17he3df3d19b397b81bE
	str	x0, [sp, #8]
	.loc	17 0 18
	ldr	x0, [sp, #8]
	.loc	17 190 6 is_stmt 1
	ldp	x29, x30, [sp, #32]
	add	sp, sp, #48
	ret
Ltmp126:
Lfunc_end44:
	.cfi_endproc

	.p2align	2
__ZN4core6future11get_context17h4b16b8c75a46ab38E:
Lfunc_begin45:
	.file	18 "/private/tmp/rust-20211101-73771-1w3cv5q/rustc-1.56.1-src/library/core/src/future/mod.rs"
	.loc	18 94 0
	.cfi_startproc
	sub	sp, sp, #48
	stp	x29, x30, [sp, #32]
	add	x29, sp, #32
	.cfi_def_cfa w29, 16
	.cfi_offset w30, -8
	.cfi_offset w29, -16
	mov	x8, x0
	str	x8, [sp, #16]
Ltmp127:
	.loc	18 97 20 prologue_end
	bl	__ZN4core3ptr8non_null16NonNull$LT$T$GT$6as_ptr17hd38f4c30c0692c48E
	str	x0, [sp, #8]
	.loc	18 0 20 is_stmt 0
	ldr	x8, [sp, #8]
	stur	x8, [x29, #-8]
	ldr	x0, [sp, #8]
	.loc	18 98 2 is_stmt 1
	ldp	x29, x30, [sp, #32]
	add	sp, sp, #48
	ret
Ltmp128:
Lfunc_end45:
	.cfi_endproc

	.p2align	2
__ZN4core6future14from_generator17h67506f2d2236aaa1E:
Lfunc_begin46:
	.loc	18 61 0
	.cfi_startproc
	sub	sp, sp, #16
	.cfi_def_cfa_offset 16
	strh	w0, [sp, #10]
	ldrh	w8, [sp, #10]
	strh	w8, [sp, #8]
Ltmp130:
	.loc	18 87 15 prologue_end
	ldrh	w8, [sp, #8]
	strh	w8, [sp, #14]
	.loc	18 87 5 is_stmt 0
	ldrh	w8, [sp, #14]
	strh	w8, [sp, #12]
	.loc	18 88 2 is_stmt 1
	ldrh	w0, [sp, #12]
	add	sp, sp, #16
	ret
Ltmp131:
Lfunc_end46:
	.cfi_endproc

	.p2align	2
__ZN4core6option15Option$LT$T$GT$5ok_or17hb4d4dcac630da609E:
Lfunc_begin47:
	.file	19 "/private/tmp/rust-20211101-73771-1w3cv5q/rustc-1.56.1-src/library/core/src/option.rs"
	.loc	19 914 0
	.cfi_startproc
	sub	sp, sp, #32
	.cfi_def_cfa_offset 32
	str	x0, [sp]
Ltmp133:
	.loc	19 915 15 prologue_end
	strb	wzr, [sp, #22]
	mov	w8, #1
	strb	w8, [sp, #22]
	ldr	x8, [sp]
	subs	x8, x8, #0
	cset	x8, ne
	.loc	19 915 9 is_stmt 0
	cbz	x8, LBB47_3
	b	LBB47_4
LBB47_3:
	.loc	19 917 25 is_stmt 1
	strb	wzr, [sp, #22]
	.loc	19 917 21 is_stmt 0
	str	xzr, [sp, #8]
	str	xzr, [sp, #8]
	.loc	19 917 28
	b	LBB47_5
LBB47_4:
	.loc	19 916 18 is_stmt 1
	ldr	x8, [sp]
	str	x8, [sp, #24]
Ltmp134:
	.loc	19 916 24 is_stmt 0
	str	x8, [sp, #8]
Ltmp135:
LBB47_5:
	.loc	19 919 5 is_stmt 1
	ldrb	w8, [sp, #22]
	tbnz	w8, #0, LBB47_7
LBB47_6:
	.loc	19 919 6 is_stmt 0
	ldr	x0, [sp, #8]
	add	sp, sp, #32
	ret
LBB47_7:
	.loc	19 919 5
	b	LBB47_6
Ltmp136:
Lfunc_end47:
	.cfi_endproc

	.p2align	2
__ZN4core6result19Result$LT$T$C$E$GT$7into_ok17h4a4c0c0d8f0ce58bE:
Lfunc_begin48:
	.loc	2 1424 0 is_stmt 1
	.cfi_startproc
	sub	sp, sp, #48
	stp	x29, x30, [sp, #32]
	add	x29, sp, #32
	.cfi_def_cfa w29, 16
	.cfi_offset w30, -8
	.cfi_offset w29, -16
	str	x0, [sp, #8]
	mov	x8, #0
Ltmp137:
	.loc	2 1425 9 prologue_end
	cbz	x8, LBB48_3
	b	LBB48_4
LBB48_3:
	.loc	2 1426 16
	ldr	x0, [sp, #8]
	stur	x0, [x29, #-8]
	.loc	2 1429 6
	ldp	x29, x30, [sp, #32]
	add	sp, sp, #48
	ret
LBB48_4:
Ltmp138:
	.loc	2 1427 23
	bl	__ZN50_$LT$T$u20$as$u20$core..convert..Into$LT$U$GT$$GT$4into17h8687cb49d41bed93E
Ltmp139:
Lfunc_end48:
	.cfi_endproc

	.p2align	2
__ZN50_$LT$T$u20$as$u20$core..convert..From$LT$T$GT$$GT$4from17h290756f02e7e222cE:
Lfunc_begin49:
	.file	20 "/private/tmp/rust-20211101-73771-1w3cv5q/rustc-1.56.1-src/library/core/src/convert/mod.rs"
	.loc	20 547 0
	.cfi_startproc
	sub	sp, sp, #16
	.cfi_def_cfa_offset 16
Ltmp141:
	.loc	20 549 6 prologue_end
	brk	#0x1
Ltmp142:
Lfunc_end49:
	.cfi_endproc

	.p2align	2
__ZN50_$LT$T$u20$as$u20$core..convert..From$LT$T$GT$$GT$4from17h55740473304e2a45E:
Lfunc_begin50:
	.loc	20 547 0
	.cfi_startproc
	sub	sp, sp, #16
	.cfi_def_cfa_offset 16
Ltmp144:
	.loc	20 549 6 prologue_end
	add	sp, sp, #16
	ret
Ltmp145:
Lfunc_end50:
	.cfi_endproc

	.p2align	2
__ZN50_$LT$T$u20$as$u20$core..convert..Into$LT$U$GT$$GT$4into17h4105e7f9cd51c090E:
Lfunc_begin51:
	.loc	20 539 0
	.cfi_startproc
	sub	sp, sp, #32
	stp	x29, x30, [sp, #16]
	add	x29, sp, #16
	.cfi_def_cfa w29, 16
	.cfi_offset w30, -8
	.cfi_offset w29, -16
	mov	x8, x0
	str	x8, [sp, #8]
Ltmp146:
	.loc	20 540 9 prologue_end
	bl	__ZN119_$LT$core..ptr..non_null..NonNull$LT$T$GT$$u20$as$u20$core..convert..From$LT$core..ptr..unique..Unique$LT$T$GT$$GT$$GT$4from17hb63cec6b9e342922E
	str	x0, [sp]
	.loc	20 0 9 is_stmt 0
	ldr	x0, [sp]
	.loc	20 541 6 is_stmt 1
	ldp	x29, x30, [sp, #16]
	add	sp, sp, #32
	ret
Ltmp147:
Lfunc_end51:
	.cfi_endproc

	.p2align	2
__ZN50_$LT$T$u20$as$u20$core..convert..Into$LT$U$GT$$GT$4into17h8687cb49d41bed93E:
Lfunc_begin52:
	.loc	20 539 0
	.cfi_startproc
	sub	sp, sp, #32
	stp	x29, x30, [sp, #16]
	add	x29, sp, #16
	.cfi_def_cfa w29, 16
	.cfi_offset w30, -8
	.cfi_offset w29, -16
Ltmp148:
	.loc	20 540 9 prologue_end
	bl	__ZN50_$LT$T$u20$as$u20$core..convert..From$LT$T$GT$$GT$4from17h290756f02e7e222cE
	.loc	20 541 6
	brk	#0x1
Ltmp149:
Lfunc_end52:
	.cfi_endproc

	.p2align	2
__ZN50_$LT$T$u20$as$u20$core..convert..Into$LT$U$GT$$GT$4into17ha7840838c21b7b5eE:
Lfunc_begin53:
	.loc	20 539 0
	.cfi_startproc
	sub	sp, sp, #32
	stp	x29, x30, [sp, #16]
	add	x29, sp, #16
	.cfi_def_cfa w29, 16
	.cfi_offset w30, -8
	.cfi_offset w29, -16
	mov	x8, x0
	str	x8, [sp, #8]
Ltmp150:
	.loc	20 540 9 prologue_end
	bl	__ZN5alloc5boxed140_$LT$impl$u20$core..convert..From$LT$alloc..boxed..Box$LT$T$C$A$GT$$GT$$u20$for$u20$core..pin..Pin$LT$alloc..boxed..Box$LT$T$C$A$GT$$GT$$GT$4from17h5c41caf87413f7ceE
	str	x0, [sp]
	.loc	20 0 9 is_stmt 0
	ldr	x0, [sp]
	.loc	20 541 6 is_stmt 1
	ldp	x29, x30, [sp, #16]
	add	sp, sp, #32
	ret
Ltmp151:
Lfunc_end53:
	.cfi_endproc

	.p2align	2
__ZN54_$LT$$LP$$RP$$u20$as$u20$std..process..Termination$GT$6report17hcd51e4a926feea8dE:
Lfunc_begin54:
	.file	21 "/private/tmp/rust-20211101-73771-1w3cv5q/rustc-1.56.1-src/library/std/src/process.rs"
	.loc	21 2023 0
	.cfi_startproc
	sub	sp, sp, #32
	stp	x29, x30, [sp, #16]
	add	x29, sp, #16
	.cfi_def_cfa w29, 16
	.cfi_offset w30, -8
	.cfi_offset w29, -16
	mov	w0, #0
Ltmp152:
	.loc	21 2024 9 prologue_end
	bl	__ZN68_$LT$std..process..ExitCode$u20$as$u20$std..process..Termination$GT$6report17h6ddf17b6b24d2b59E
	str	w0, [sp, #8]
	.loc	21 0 9 is_stmt 0
	ldr	w0, [sp, #8]
	.loc	21 2025 6 is_stmt 1
	ldp	x29, x30, [sp, #16]
	add	sp, sp, #32
	ret
Ltmp153:
Lfunc_end54:
	.cfi_endproc

	.p2align	2
__ZN57_$LT$$RF$mut$u20$T$u20$as$u20$core..ops..deref..Deref$GT$5deref17h4f45e84de090d1ddE:
Lfunc_begin55:
	.file	22 "/private/tmp/rust-20211101-73771-1w3cv5q/rustc-1.56.1-src/library/core/src/ops/deref.rs"
	.loc	22 95 0
	.cfi_startproc
	sub	sp, sp, #16
	.cfi_def_cfa_offset 16
	mov	x8, x0
	str	x8, [sp, #8]
Ltmp155:
	.loc	22 96 9 prologue_end
	ldr	x0, [x0]
	.loc	22 97 6
	add	sp, sp, #16
	ret
Ltmp156:
Lfunc_end55:
	.cfi_endproc

	.p2align	2
__ZN5alloc5alloc12alloc_zeroed17h9706fa38d3c026ebE:
Lfunc_begin56:
	.file	23 "/private/tmp/rust-20211101-73771-1w3cv5q/rustc-1.56.1-src/library/alloc/src/alloc.rs"
	.loc	23 154 0
	.cfi_startproc
	sub	sp, sp, #64
	stp	x29, x30, [sp, #48]
	add	x29, sp, #48
	.cfi_def_cfa w29, 16
	.cfi_offset w30, -8
	.cfi_offset w29, -16
	mov	x8, x0
	sub	x0, x29, #16
	stur	x8, [x29, #-16]
	stur	x1, [x29, #-8]
Ltmp157:
	.loc	23 155 34 prologue_end
	bl	__ZN4core5alloc6layout6Layout4size17h51d77739f1027a73E
	str	x0, [sp, #24]
	.loc	23 0 34 is_stmt 0
	sub	x0, x29, #16
	.loc	23 155 49
	bl	__ZN4core5alloc6layout6Layout5align17he668ff25b6f7a98cE
	str	x0, [sp, #16]
	.loc	23 0 49
	ldr	x1, [sp, #16]
	ldr	x0, [sp, #24]
	.loc	23 155 14
	bl	___rust_alloc_zeroed
	str	x0, [sp, #8]
	.loc	23 0 14
	ldr	x0, [sp, #8]
	.loc	23 156 2 is_stmt 1
	ldp	x29, x30, [sp, #48]
	add	sp, sp, #64
	ret
Ltmp158:
Lfunc_end56:
	.cfi_endproc

	.p2align	2
__ZN5alloc5alloc15exchange_malloc17he8df718d78183c22E:
Lfunc_begin57:
	.loc	23 314 0
	.cfi_startproc
	sub	sp, sp, #112
	stp	x29, x30, [sp, #96]
	add	x29, sp, #96
	.cfi_def_cfa w29, 16
	.cfi_offset w30, -8
	.cfi_offset w29, -16
	str	x0, [sp, #48]
	stur	x1, [x29, #-40]
Ltmp159:
	.loc	23 315 27 prologue_end
	bl	__ZN4core5alloc6layout6Layout25from_size_align_unchecked17hb5cd4c6a665c5151E
	str	x0, [sp, #16]
	str	x1, [sp, #24]
	stur	x0, [x29, #-32]
	stur	x1, [x29, #-24]
	.loc	23 0 27 is_stmt 0
	ldr	x2, [sp, #24]
	ldr	x1, [sp, #16]
Ltmp160:
	adrp	x0, l___unnamed_4@PAGE
	add	x0, x0, l___unnamed_4@PAGEOFF
	.loc	23 316 11 is_stmt 1
	bl	__ZN63_$LT$alloc..alloc..Global$u20$as$u20$core..alloc..Allocator$GT$8allocate17h43feb5d4d2c35fa6E
	str	x0, [sp, #32]
	str	x1, [sp, #40]
	ldr	x9, [sp, #32]
	mov	x8, #0
	subs	x9, x9, #0
	csinc	x8, x8, xzr, ne
	.loc	23 316 5 is_stmt 0
	cbz	x8, LBB57_5
	b	LBB57_6
LBB57_5:
	.loc	23 317 12 is_stmt 1
	ldr	x0, [sp, #32]
	ldr	x1, [sp, #40]
	stur	x0, [x29, #-16]
	stur	x1, [x29, #-8]
Ltmp161:
	.loc	23 317 20 is_stmt 0
	bl	__ZN4core3ptr8non_null26NonNull$LT$$u5b$T$u5d$$GT$10as_mut_ptr17h0058dd3c359f645cE
	str	x0, [sp, #8]
	b	LBB57_7
Ltmp162:
LBB57_6:
	.loc	23 0 20
	ldr	x1, [sp, #24]
	ldr	x0, [sp, #16]
	.loc	23 318 19 is_stmt 1
	bl	__ZN5alloc5alloc18handle_alloc_error17h88ea8cbb484b6328E
Ltmp163:
LBB57_7:
	.loc	23 0 19 is_stmt 0
	ldr	x0, [sp, #8]
	.loc	23 320 2 is_stmt 1
	ldp	x29, x30, [sp, #96]
	add	sp, sp, #112
	ret
Ltmp164:
Lfunc_end57:
	.cfi_endproc

	.p2align	2
__ZN5alloc5alloc5alloc17h01cddeeb2d1bd2c7E:
Lfunc_begin58:
	.loc	23 85 0
	.cfi_startproc
	sub	sp, sp, #64
	stp	x29, x30, [sp, #48]
	add	x29, sp, #48
	.cfi_def_cfa w29, 16
	.cfi_offset w30, -8
	.cfi_offset w29, -16
	mov	x8, x0
	sub	x0, x29, #16
	stur	x8, [x29, #-16]
	stur	x1, [x29, #-8]
Ltmp165:
	.loc	23 86 27 prologue_end
	bl	__ZN4core5alloc6layout6Layout4size17h51d77739f1027a73E
	str	x0, [sp, #24]
	.loc	23 0 27 is_stmt 0
	sub	x0, x29, #16
	.loc	23 86 42
	bl	__ZN4core5alloc6layout6Layout5align17he668ff25b6f7a98cE
	str	x0, [sp, #16]
	.loc	23 0 42
	ldr	x1, [sp, #16]
	ldr	x0, [sp, #24]
	.loc	23 86 14
	bl	___rust_alloc
	str	x0, [sp, #8]
	.loc	23 0 14
	ldr	x0, [sp, #8]
	.loc	23 87 2 is_stmt 1
	ldp	x29, x30, [sp, #48]
	add	sp, sp, #64
	ret
Ltmp166:
Lfunc_end58:
	.cfi_endproc

	.p2align	2
__ZN5alloc5alloc6Global10alloc_impl17h3296b97f52598388E:
Lfunc_begin59:
	.loc	23 161 0
	.cfi_startproc
	sub	sp, sp, #176
	stp	x29, x30, [sp, #160]
	add	x29, sp, #160
	.cfi_def_cfa w29, 16
	.cfi_offset w30, -8
	.cfi_offset w29, -16
	mov	x8, x0
	str	w3, [sp, #60]
	add	x0, sp, #72
	str	x1, [sp, #72]
	str	x2, [sp, #80]
	stur	x8, [x29, #-40]
	and	w8, w3, #0x1
	sturb	w8, [x29, #-26]
Ltmp167:
	.loc	23 162 15 prologue_end
	bl	__ZN4core5alloc6layout6Layout4size17h51d77739f1027a73E
	str	x0, [sp, #64]
	.loc	23 0 15 is_stmt 0
	ldr	x8, [sp, #64]
	.loc	23 162 9
	cbnz	x8, LBB59_3
	.loc	23 0 9
	add	x0, sp, #72
	.loc	23 163 51 is_stmt 1
	bl	__ZN4core5alloc6layout6Layout8dangling17h088bf93f04cb78bdE
	str	x0, [sp, #48]
	b	LBB59_20
LBB59_3:
	.loc	23 0 51 is_stmt 0
	ldr	w8, [sp, #60]
	ldr	x9, [sp, #64]
	.loc	23 165 13 is_stmt 1
	stur	x9, [x29, #-24]
Ltmp168:
	.loc	23 166 34
	tbnz	w8, #0, LBB59_5
	.loc	23 166 79 is_stmt 0
	ldr	x0, [sp, #72]
	ldr	x1, [sp, #80]
	.loc	23 166 73
	bl	__ZN5alloc5alloc5alloc17h01cddeeb2d1bd2c7E
	stur	x0, [x29, #-56]
	b	LBB59_8
LBB59_5:
	.loc	23 166 56
	ldr	x0, [sp, #72]
	ldr	x1, [sp, #80]
	.loc	23 166 43
	bl	__ZN5alloc5alloc12alloc_zeroed17h9706fa38d3c026ebE
	stur	x0, [x29, #-56]
LBB59_7:
Ltmp169:
	.loc	23 167 40 is_stmt 1
	ldur	x0, [x29, #-56]
	.loc	23 167 27 is_stmt 0
	bl	__ZN4core3ptr8non_null16NonNull$LT$T$GT$3new17h910156f3dfd3faa0E
	str	x0, [sp, #40]
	b	LBB59_9
Ltmp170:
LBB59_8:
	.loc	23 166 31 is_stmt 1
	b	LBB59_7
LBB59_9:
	.loc	23 0 31 is_stmt 0
	ldr	x0, [sp, #40]
Ltmp171:
	.loc	23 167 27 is_stmt 1
	bl	__ZN4core6option15Option$LT$T$GT$5ok_or17hb4d4dcac630da609E
	str	x0, [sp, #32]
	.loc	23 0 27 is_stmt 0
	ldr	x0, [sp, #32]
	.loc	23 167 27
	bl	__ZN79_$LT$core..result..Result$LT$T$C$E$GT$$u20$as$u20$core..ops..try_trait..Try$GT$6branch17hc37de9ab9ebc4b91E
	stur	x0, [x29, #-48]
	ldur	x9, [x29, #-48]
	mov	x8, #0
	subs	x9, x9, #0
	csinc	x8, x8, xzr, ne
	cbz	x8, LBB59_14
	b	LBB59_15
LBB59_14:
	.loc	23 0 27
	ldr	x1, [sp, #64]
	.loc	23 167 27
	ldur	x0, [x29, #-48]
	stur	x0, [x29, #-16]
Ltmp172:
	.loc	23 167 27
	stur	x0, [x29, #-8]
Ltmp173:
	.loc	23 168 20 is_stmt 1
	bl	__ZN4core3ptr8non_null26NonNull$LT$$u5b$T$u5d$$GT$20slice_from_raw_parts17h8dac679a39d00249E
	str	x0, [sp, #16]
	str	x1, [sp, #24]
	b	LBB59_18
Ltmp174:
LBB59_15:
	.loc	23 167 27
	bl	__ZN153_$LT$core..result..Result$LT$T$C$F$GT$$u20$as$u20$core..ops..try_trait..FromResidual$LT$core..result..Result$LT$core..convert..Infallible$C$E$GT$$GT$$GT$13from_residual17ha716b7c22b50e51cE
	stur	x0, [x29, #-72]
	stur	x1, [x29, #-64]
Ltmp175:
LBB59_17:
	.loc	23 171 6
	ldur	x0, [x29, #-72]
	ldur	x1, [x29, #-64]
	ldp	x29, x30, [sp, #160]
	add	sp, sp, #176
	ret
LBB59_18:
	.loc	23 0 6 is_stmt 0
	ldr	x8, [sp, #24]
	ldr	x9, [sp, #16]
Ltmp176:
	.loc	23 168 17 is_stmt 1
	stur	x9, [x29, #-72]
	stur	x8, [x29, #-64]
Ltmp177:
LBB59_19:
	.loc	23 171 6
	b	LBB59_17
LBB59_20:
	.loc	23 0 6 is_stmt 0
	ldr	x0, [sp, #48]
	mov	x1, #0
	.loc	23 163 21 is_stmt 1
	bl	__ZN4core3ptr8non_null26NonNull$LT$$u5b$T$u5d$$GT$20slice_from_raw_parts17h8dac679a39d00249E
	str	x0, [sp]
	str	x1, [sp, #8]
	.loc	23 0 21 is_stmt 0
	ldr	x8, [sp, #8]
	ldr	x9, [sp]
	.loc	23 163 18
	stur	x9, [x29, #-72]
	stur	x8, [x29, #-64]
	.loc	23 163 72
	b	LBB59_19
Ltmp178:
Lfunc_end59:
	.cfi_endproc

	.p2align	2
__ZN5alloc5alloc7dealloc17hf997d5b564ec1994E:
Lfunc_begin60:
	.loc	23 103 0 is_stmt 1
	.cfi_startproc
	sub	sp, sp, #64
	stp	x29, x30, [sp, #48]
	add	x29, sp, #48
	.cfi_def_cfa w29, 16
	.cfi_offset w30, -8
	.cfi_offset w29, -16
	mov	x8, x0
	str	x8, [sp, #8]
	add	x0, sp, #24
	str	x1, [sp, #24]
	str	x2, [sp, #32]
	stur	x8, [x29, #-8]
Ltmp179:
	.loc	23 104 34 prologue_end
	bl	__ZN4core5alloc6layout6Layout4size17h51d77739f1027a73E
	str	x0, [sp, #16]
	.loc	23 0 34 is_stmt 0
	add	x0, sp, #24
	.loc	23 104 49
	bl	__ZN4core5alloc6layout6Layout5align17he668ff25b6f7a98cE
	str	x0, [sp]
	.loc	23 0 49
	ldr	x2, [sp]
	ldr	x1, [sp, #16]
	ldr	x0, [sp, #8]
	.loc	23 104 14
	bl	___rust_dealloc
	.loc	23 105 2 is_stmt 1
	ldp	x29, x30, [sp, #48]
	add	sp, sp, #64
	ret
Ltmp180:
Lfunc_end60:
	.cfi_endproc

	.p2align	2
__ZN5alloc5alloc8box_free17h4a8ead4d33002f26E:
Lfunc_begin61:
	.loc	23 329 0
	.cfi_startproc
	.cfi_personality 155, _rust_eh_personality
	.cfi_lsda 16, Lexception3
	sub	sp, sp, #144
	stp	x29, x30, [sp, #128]
	add	x29, sp, #128
	.cfi_def_cfa w29, 16
	.cfi_offset w30, -8
	.cfi_offset w29, -16
	mov	x8, x0
	add	x0, sp, #48
	str	x8, [sp, #48]
Ltmp181:
Ltmp194:
	.loc	23 331 32 prologue_end
	bl	__ZN4core3ptr6unique15Unique$LT$T$GT$6as_ref17h864895785f0c6c1cE
Ltmp182:
	.loc	23 0 32 is_stmt 0
	mov	w8, #2
	.loc	23 331 20
	stur	x8, [x29, #-48]
	ldur	x8, [x29, #-48]
	str	x8, [sp, #40]
	stur	x8, [x29, #-40]
	b	LBB61_4
LBB61_2:
	.loc	23 336 1 is_stmt 1
	b	LBB61_11
LBB61_3:
Ltmp193:
	.loc	23 0 1 is_stmt 0
	mov	x8, x1
	str	x0, [sp, #64]
	str	w8, [sp, #72]
	b	LBB61_2
LBB61_4:
Ltmp183:
	add	x0, sp, #48
Ltmp195:
	.loc	23 332 38 is_stmt 1
	bl	__ZN4core3ptr6unique15Unique$LT$T$GT$6as_ref17h864895785f0c6c1cE
Ltmp184:
	.loc	23 0 38 is_stmt 0
	mov	w8, #1
	.loc	23 332 21
	stur	x8, [x29, #-32]
	ldur	x8, [x29, #-32]
	str	x8, [sp, #32]
	stur	x8, [x29, #-24]
Ltmp185:
	.loc	23 0 21
	ldr	x1, [sp, #32]
	ldr	x0, [sp, #40]
Ltmp196:
	.loc	23 333 22 is_stmt 1
	bl	__ZN4core5alloc6layout6Layout25from_size_align_unchecked17hb5cd4c6a665c5151E
	str	x0, [sp, #16]
	str	x1, [sp, #24]
Ltmp186:
	.loc	23 0 22 is_stmt 0
	ldr	x8, [sp, #24]
	ldr	x9, [sp, #16]
	.loc	23 333 22
	stur	x9, [x29, #-16]
	stur	x8, [x29, #-8]
Ltmp197:
	.loc	23 334 26 is_stmt 1
	ldr	x0, [sp, #48]
Ltmp187:
	bl	__ZN4core3ptr6unique15Unique$LT$T$GT$4cast17h472487cc0ce88de2E
	str	x0, [sp, #8]
Ltmp188:
Ltmp189:
	.loc	23 0 26 is_stmt 0
	ldr	x0, [sp, #8]
	.loc	23 334 26
	bl	__ZN50_$LT$T$u20$as$u20$core..convert..Into$LT$U$GT$$GT$4into17h4105e7f9cd51c090E
	str	x0, [sp]
Ltmp190:
Ltmp191:
	.loc	23 0 26
	ldr	x3, [sp, #24]
	ldr	x2, [sp, #16]
	ldr	x1, [sp]
	add	x0, sp, #63
	.loc	23 334 9
	bl	__ZN63_$LT$alloc..alloc..Global$u20$as$u20$core..alloc..Allocator$GT$10deallocate17hdddd816e4ff5ecb7E
Ltmp198:
Ltmp192:
	.loc	23 336 1 is_stmt 1
	b	LBB61_12
LBB61_11:
	.loc	23 329 1
	ldr	x0, [sp, #64]
	bl	__Unwind_Resume
LBB61_12:
	.loc	23 336 2
	ldp	x29, x30, [sp, #128]
	add	sp, sp, #144
	ret
Ltmp199:
Lfunc_end61:
	.cfi_endproc
	.section	__TEXT,__gcc_except_tab
	.p2align	2
GCC_except_table61:
Lexception3:
	.byte	255
	.byte	255
	.byte	1
	.uleb128 Lcst_end3-Lcst_begin3
Lcst_begin3:
	.uleb128 Ltmp181-Lfunc_begin61
	.uleb128 Ltmp192-Ltmp181
	.uleb128 Ltmp193-Lfunc_begin61
	.byte	0
	.uleb128 Ltmp192-Lfunc_begin61
	.uleb128 Lfunc_end61-Ltmp192
	.byte	0
	.byte	0
Lcst_end3:
	.p2align	2

	.section	__TEXT,__text,regular,pure_instructions
	.p2align	2
__ZN5alloc5boxed140_$LT$impl$u20$core..convert..From$LT$alloc..boxed..Box$LT$T$C$A$GT$$GT$$u20$for$u20$core..pin..Pin$LT$alloc..boxed..Box$LT$T$C$A$GT$$GT$$GT$4from17h5c41caf87413f7ceE:
Lfunc_begin62:
	.file	24 "/private/tmp/rust-20211101-73771-1w3cv5q/rustc-1.56.1-src/library/alloc/src/boxed.rs"
	.loc	24 1298 0
	.cfi_startproc
	sub	sp, sp, #32
	stp	x29, x30, [sp, #16]
	add	x29, sp, #16
	.cfi_def_cfa w29, 16
	.cfi_offset w30, -8
	.cfi_offset w29, -16
	mov	x8, x0
	str	x8, [sp, #8]
Ltmp200:
	.loc	24 1299 9 prologue_end
	bl	__ZN5alloc5boxed16Box$LT$T$C$A$GT$8into_pin17he57f050601235f1aE
	str	x0, [sp]
	.loc	24 0 9 is_stmt 0
	ldr	x0, [sp]
	.loc	24 1300 6 is_stmt 1
	ldp	x29, x30, [sp, #16]
	add	sp, sp, #32
	ret
Ltmp201:
Lfunc_end62:
	.cfi_endproc

	.p2align	2
__ZN5alloc5boxed16Box$LT$T$C$A$GT$8into_pin17he57f050601235f1aE:
Lfunc_begin63:
	.loc	24 1071 0
	.cfi_startproc
	sub	sp, sp, #32
	.cfi_def_cfa_offset 32
	mov	x8, x0
	str	x8, [sp, #8]
	mov	x8, x0
	str	x8, [sp, #24]
Ltmp203:
	.loc	9 572 9 prologue_end
	str	x0, [sp, #16]
	.loc	9 573 6
	ldr	x8, [sp, #16]
	str	x8, [sp]
Ltmp204:
	.loc	9 0 6 is_stmt 0
	ldr	x0, [sp]
	.loc	24 1079 6 is_stmt 1
	add	sp, sp, #32
	ret
Ltmp205:
Lfunc_end63:
	.cfi_endproc

	.p2align	2
__ZN63_$LT$alloc..alloc..Global$u20$as$u20$core..alloc..Allocator$GT$10deallocate17hdddd816e4ff5ecb7E:
Lfunc_begin64:
	.loc	23 235 0
	.cfi_startproc
	sub	sp, sp, #80
	stp	x29, x30, [sp, #64]
	add	x29, sp, #64
	.cfi_def_cfa w29, 16
	.cfi_offset w30, -8
	.cfi_offset w29, -16
	mov	x8, x0
	str	x1, [sp, #16]
	add	x0, sp, #32
	str	x2, [sp, #32]
	str	x3, [sp, #40]
	stur	x8, [x29, #-16]
	stur	x1, [x29, #-8]
Ltmp206:
	.loc	23 236 12 prologue_end
	bl	__ZN4core5alloc6layout6Layout4size17h51d77739f1027a73E
	str	x0, [sp, #24]
	.loc	23 0 12 is_stmt 0
	ldr	x8, [sp, #24]
	.loc	23 236 12
	cbnz	x8, LBB64_3
	.loc	23 236 9
	b	LBB64_6
LBB64_3:
	.loc	23 0 9
	ldr	x0, [sp, #16]
	.loc	23 239 30 is_stmt 1
	bl	__ZN4core3ptr8non_null16NonNull$LT$T$GT$6as_ptr17h717a13f3c290e288E
	str	x0, [sp, #8]
	.loc	23 0 30 is_stmt 0
	ldr	x0, [sp, #8]
	.loc	23 239 44
	ldr	x1, [sp, #32]
	ldr	x2, [sp, #40]
	.loc	23 239 22
	bl	__ZN5alloc5alloc7dealloc17hf997d5b564ec1994E
LBB64_6:
	.loc	23 241 6 is_stmt 1
	ldp	x29, x30, [sp, #64]
	add	sp, sp, #80
	ret
Ltmp207:
Lfunc_end64:
	.cfi_endproc

	.p2align	2
__ZN63_$LT$alloc..alloc..Global$u20$as$u20$core..alloc..Allocator$GT$8allocate17h43feb5d4d2c35fa6E:
Lfunc_begin65:
	.loc	23 225 0
	.cfi_startproc
	sub	sp, sp, #64
	stp	x29, x30, [sp, #48]
	add	x29, sp, #48
	.cfi_def_cfa w29, 16
	.cfi_offset w30, -8
	.cfi_offset w29, -16
	mov	x8, x0
	str	x8, [sp, #24]
	stur	x1, [x29, #-16]
	stur	x2, [x29, #-8]
	mov	w8, #0
Ltmp208:
	.loc	23 226 9 prologue_end
	and	w3, w8, #0x1
	bl	__ZN5alloc5alloc6Global10alloc_impl17h3296b97f52598388E
	str	x0, [sp, #8]
	str	x1, [sp, #16]
	.loc	23 0 9 is_stmt 0
	ldr	x1, [sp, #16]
	ldr	x0, [sp, #8]
	.loc	23 227 6 is_stmt 1
	ldp	x29, x30, [sp, #48]
	add	sp, sp, #64
	ret
Ltmp209:
Lfunc_end65:
	.cfi_endproc

	.p2align	2
__ZN65_$LT$core..task..wake..Waker$u20$as$u20$core..ops..drop..Drop$GT$4drop17ha53cde19e8132e08E:
Lfunc_begin66:
	.loc	16 276 0
	.cfi_startproc
	sub	sp, sp, #32
	stp	x29, x30, [sp, #16]
	add	x29, sp, #16
	.cfi_def_cfa w29, 16
	.cfi_offset w30, -8
	.cfi_offset w29, -16
	mov	x8, x0
	str	x8, [sp, #8]
Ltmp210:
	.loc	16 280 18 prologue_end
	ldr	x8, [x0, #8]
	ldr	x8, [x8, #24]
	.loc	16 280 43 is_stmt 0
	ldr	x0, [x0]
	.loc	16 280 18
	blr	x8
	.loc	16 281 6 is_stmt 1
	ldp	x29, x30, [sp, #16]
	add	sp, sp, #32
	ret
Ltmp211:
Lfunc_end66:
	.cfi_endproc

	.p2align	2
__ZN67_$LT$core..pin..Pin$LT$P$GT$$u20$as$u20$core..ops..deref..Deref$GT$5deref17h7cdaa9324da3eb5bE:
Lfunc_begin67:
	.loc	9 860 0
	.cfi_startproc
	sub	sp, sp, #64
	stp	x29, x30, [sp, #48]
	add	x29, sp, #48
	.cfi_def_cfa w29, 16
	.cfi_offset w30, -8
	.cfi_offset w29, -16
	mov	x8, x0
	str	x8, [sp, #8]
	mov	x8, x0
	str	x8, [sp, #16]
Ltmp212:
	.loc	9 586 38 prologue_end
	bl	__ZN57_$LT$$RF$mut$u20$T$u20$as$u20$core..ops..deref..Deref$GT$5deref17h4f45e84de090d1ddE
	mov	x8, x0
	stur	x8, [x29, #-16]
Ltmp213:
	.loc	9 572 9
	str	x0, [sp, #24]
	.loc	9 573 6
	ldr	x8, [sp, #24]
	str	x8, [sp]
Ltmp214:
	.loc	9 0 6 is_stmt 0
	ldr	x8, [sp]
	stur	x8, [x29, #-8]
	ldr	x0, [sp]
	.loc	9 862 6 is_stmt 1
	ldp	x29, x30, [sp, #48]
	add	sp, sp, #64
	ret
Ltmp215:
Lfunc_end67:
	.cfi_endproc

	.p2align	2
__ZN68_$LT$std..process..ExitCode$u20$as$u20$std..process..Termination$GT$6report17h6ddf17b6b24d2b59E:
Lfunc_begin68:
	.loc	21 2057 0
	.cfi_startproc
	sub	sp, sp, #32
	stp	x29, x30, [sp, #16]
	add	x29, sp, #16
	.cfi_def_cfa w29, 16
	.cfi_offset w30, -8
	.cfi_offset w29, -16
	mov	x8, x0
	sub	x0, x29, #1
	sturb	w8, [x29, #-1]
Ltmp216:
	.loc	21 2058 9 prologue_end
	bl	__ZN3std3sys4unix7process14process_common8ExitCode6as_i3217hdcb9bc23ce83be19E
	str	w0, [sp, #8]
	.loc	21 0 9 is_stmt 0
	ldr	w0, [sp, #8]
	.loc	21 2059 6 is_stmt 1
	ldp	x29, x30, [sp, #16]
	add	sp, sp, #32
	ret
Ltmp217:
Lfunc_end68:
	.cfi_endproc

	.p2align	2
__ZN77_$LT$alloc..boxed..Box$LT$T$C$A$GT$$u20$as$u20$core..ops..deref..DerefMut$GT$9deref_mut17hc6e12b08a9fc704eE:
Lfunc_begin69:
	.loc	24 1558 0
	.cfi_startproc
	sub	sp, sp, #16
	.cfi_def_cfa_offset 16
	mov	x8, x0
	str	x8, [sp, #8]
Ltmp219:
	.loc	24 1559 9 prologue_end
	ldr	x0, [x0]
	.loc	24 1560 6
	add	sp, sp, #16
	ret
Ltmp220:
Lfunc_end69:
	.cfi_endproc

	.p2align	2
__ZN79_$LT$core..result..Result$LT$T$C$E$GT$$u20$as$u20$core..ops..try_trait..Try$GT$6branch17hc37de9ab9ebc4b91E:
Lfunc_begin70:
	.loc	2 1902 0
	.cfi_startproc
	sub	sp, sp, #32
	.cfi_def_cfa_offset 32
	str	x0, [sp]
Ltmp222:
	.loc	2 1903 15 prologue_end
	ldr	x9, [sp]
	mov	x8, #0
	subs	x9, x9, #0
	csinc	x8, x8, xzr, ne
	.loc	2 1903 9 is_stmt 0
	cbz	x8, LBB70_3
	b	LBB70_4
LBB70_3:
	.loc	2 1904 16 is_stmt 1
	ldr	x8, [sp]
	str	x8, [sp, #24]
Ltmp223:
	.loc	2 1904 22 is_stmt 0
	str	x8, [sp, #8]
Ltmp224:
	.loc	2 1904 45
	b	LBB70_5
LBB70_4:
Ltmp225:
	.loc	2 1905 23 is_stmt 1
	str	xzr, [sp, #8]
	str	xzr, [sp, #8]
Ltmp226:
LBB70_5:
	.loc	2 1907 6
	ldr	x0, [sp, #8]
	add	sp, sp, #32
	ret
Ltmp227:
Lfunc_end70:
	.cfi_endproc

	.p2align	2
__ZN97_$LT$core..future..from_generator..GenFuture$LT$T$GT$$u20$as$u20$core..future..future..Future$GT$4poll17hed60393b7c0af7d2E:
Lfunc_begin71:
	.loc	18 74 0
	.cfi_startproc
	sub	sp, sp, #96
	stp	x29, x30, [sp, #80]
	add	x29, sp, #80
	.cfi_def_cfa w29, 16
	.cfi_offset w30, -8
	.cfi_offset w29, -16
	str	x1, [sp, #16]
	mov	x8, x0
	stur	x8, [x29, #-32]
	stur	x1, [x29, #-24]
Ltmp228:
	.loc	18 76 32 prologue_end
	bl	__ZN4core3pin24Pin$LT$$RF$mut$u20$T$GT$17map_unchecked_mut17h7f97b117e8cada4fE
	str	x0, [sp, #24]
	stur	x0, [x29, #-8]
	.loc	18 0 32 is_stmt 0
	ldr	x0, [sp, #16]
Ltmp229:
	.loc	18 80 39 is_stmt 1
	bl	__ZN98_$LT$core..ptr..non_null..NonNull$LT$T$GT$$u20$as$u20$core..convert..From$LT$$RF$mut$u20$T$GT$$GT$4from17he8cb1b3c629ca34aE
	str	x0, [sp, #8]
	.loc	18 0 39 is_stmt 0
	ldr	x0, [sp, #8]
	.loc	18 80 39
	bl	__ZN4core3ptr8non_null16NonNull$LT$T$GT$4cast17h17c2198157599c92E
	str	x0, [sp]
	.loc	18 0 39
	ldr	x0, [sp, #24]
	ldr	x8, [sp]
	.loc	18 80 30
	str	x8, [sp, #40]
	.loc	18 80 19
	ldr	x1, [sp, #40]
	bl	__ZN10async_rust11hello_world28_$u7b$$u7b$closure$u7d$$u7d$17h41d171c61fa37efcE
	and	w8, w0, #0x1
	strb	w8, [sp, #39]
	ldrb	w8, [sp, #39]
	.loc	18 80 13
	tbz	w8, #0, LBB71_7
	b	LBB71_8
LBB71_7:
	.loc	18 0 13
	mov	w8, #1
	.loc	18 81 48 is_stmt 1
	strb	w8, [sp, #38]
	b	LBB71_9
LBB71_8:
Ltmp230:
	.loc	18 82 48
	strb	wzr, [sp, #38]
Ltmp231:
LBB71_9:
	.loc	18 84 10
	ldrb	w8, [sp, #38]
	and	w0, w8, #0x1
	ldp	x29, x30, [sp, #80]
	add	sp, sp, #96
	ret
Ltmp232:
Lfunc_end71:
	.cfi_endproc

	.p2align	2
__ZN97_$LT$core..future..from_generator..GenFuture$LT$T$GT$$u20$as$u20$core..future..future..Future$GT$4poll28_$u7b$$u7b$closure$u7d$$u7d$17hffc80c4c2922dc11E:
Lfunc_begin72:
	.loc	18 76 0
	.cfi_startproc
	sub	sp, sp, #16
	.cfi_def_cfa_offset 16
	mov	x8, x0
	str	x8, [sp, #8]
Ltmp234:
	.loc	18 76 73 prologue_end
	add	sp, sp, #16
	ret
Ltmp235:
Lfunc_end72:
	.cfi_endproc

	.p2align	2
__ZN98_$LT$core..ptr..non_null..NonNull$LT$T$GT$$u20$as$u20$core..convert..From$LT$$RF$mut$u20$T$GT$$GT$4from17he8cb1b3c629ca34aE:
Lfunc_begin73:
	.loc	1 700 0
	.cfi_startproc
	sub	sp, sp, #16
	.cfi_def_cfa_offset 16
	mov	x8, x0
	str	x8, [sp, #8]
Ltmp237:
	.loc	1 702 18 prologue_end
	str	x0, [sp]
	.loc	1 703 6
	ldr	x0, [sp]
	add	sp, sp, #16
	ret
Ltmp238:
Lfunc_end73:
	.cfi_endproc

	.p2align	2
__ZN10async_rust10noop_clone17hb22dfbc0c67cef13E:
Lfunc_begin74:
	.loc	10 7 0
	.cfi_startproc
	sub	sp, sp, #48
	stp	x29, x30, [sp, #32]
	add	x29, sp, #32
	.cfi_def_cfa w29, 16
	.cfi_offset w30, -8
	.cfi_offset w29, -16
	stur	x0, [x29, #-8]
Ltmp239:
	.loc	10 8 5 prologue_end
	bl	__ZN10async_rust14noop_raw_waker17h3846ecc7f42cdf34E
	str	x0, [sp, #8]
	str	x1, [sp, #16]
	.loc	10 0 5 is_stmt 0
	ldr	x1, [sp, #16]
	ldr	x0, [sp, #8]
	.loc	10 9 2 is_stmt 1
	ldp	x29, x30, [sp, #32]
	add	sp, sp, #48
	ret
Ltmp240:
Lfunc_end74:
	.cfi_endproc

	.p2align	2
__ZN10async_rust4noop17h3636637bd211a95bE:
Lfunc_begin75:
	.loc	10 11 0
	.cfi_startproc
	sub	sp, sp, #16
	.cfi_def_cfa_offset 16
	str	x0, [sp, #8]
Ltmp242:
	.loc	10 11 36 prologue_end
	add	sp, sp, #16
	ret
Ltmp243:
Lfunc_end75:
	.cfi_endproc

	.p2align	2
__ZN10async_rust14noop_raw_waker17h3846ecc7f42cdf34E:
Lfunc_begin76:
	.loc	10 15 0
	.cfi_startproc
	sub	sp, sp, #32
	stp	x29, x30, [sp, #16]
	add	x29, sp, #16
	.cfi_def_cfa w29, 16
	.cfi_offset w30, -8
	.cfi_offset w29, -16
	mov	x0, #0
Ltmp244:
	.loc	10 0 0 prologue_end
	adrp	x1, l___unnamed_5@PAGE
	add	x1, x1, l___unnamed_5@PAGEOFF
	.loc	10 16 5
	bl	__ZN4core4task4wake8RawWaker3new17h6db9dfb4d61bbf39E
	str	x0, [sp]
	str	x1, [sp, #8]
	.loc	10 0 5 is_stmt 0
	ldr	x1, [sp, #8]
	ldr	x0, [sp]
	.loc	10 17 2 is_stmt 1
	ldp	x29, x30, [sp, #16]
	add	sp, sp, #32
	ret
Ltmp245:
Lfunc_end76:
	.cfi_endproc

	.p2align	2
__ZN10async_rust10noop_waker17h7f6ffcdfe85761e9E:
Lfunc_begin77:
	.loc	10 20 0
	.cfi_startproc
	sub	sp, sp, #48
	stp	x29, x30, [sp, #32]
	add	x29, sp, #32
	.cfi_def_cfa w29, 16
	.cfi_offset w30, -8
	.cfi_offset w29, -16
Ltmp246:
	.loc	10 21 30 prologue_end
	bl	__ZN10async_rust14noop_raw_waker17h3846ecc7f42cdf34E
	str	x0, [sp, #16]
	stur	x1, [x29, #-8]
	.loc	10 0 30 is_stmt 0
	ldur	x1, [x29, #-8]
	ldr	x0, [sp, #16]
	.loc	10 21 14
	bl	__ZN4core4task4wake5Waker8from_raw17h73b699292d4176dfE
	str	x0, [sp]
	str	x1, [sp, #8]
	.loc	10 0 14
	ldr	x1, [sp, #8]
	ldr	x0, [sp]
	.loc	10 22 2 is_stmt 1
	ldp	x29, x30, [sp, #32]
	add	sp, sp, #48
	ret
Ltmp247:
Lfunc_end77:
	.cfi_endproc

	.p2align	2
__ZN72_$LT$async_rust..DummyFuture$u20$as$u20$core..future..future..Future$GT$4poll17h5619da50c1d08938E:
Lfunc_begin78:
	.loc	10 31 0
	.cfi_startproc
	sub	sp, sp, #80
	stp	x29, x30, [sp, #64]
	add	x29, sp, #64
	.cfi_def_cfa w29, 16
	.cfi_offset w30, -8
	.cfi_offset w29, -16
	mov	x8, x0
	add	x0, sp, #32
	str	x8, [sp, #32]
	stur	x1, [x29, #-16]
Ltmp248:
	.loc	10 32 12 prologue_end
	bl	__ZN67_$LT$core..pin..Pin$LT$P$GT$$u20$as$u20$core..ops..deref..Deref$GT$5deref17h7cdaa9324da3eb5bE
	str	x0, [sp, #24]
	.loc	10 0 12 is_stmt 0
	ldr	x8, [sp, #24]
	.loc	10 32 12
	ldrb	w8, [x8]
	subs	w8, w8, #1
	b.ne	LBB78_3
	.loc	10 0 12
	mov	w8, #11
	.loc	10 33 13 is_stmt 1
	sturb	w8, [x29, #-17]
	sturb	wzr, [x29, #-18]
	.loc	10 32 9
	b	LBB78_7
LBB78_3:
	.loc	10 35 29
	ldr	x8, [sp, #32]
	str	x8, [sp, #16]
	stur	x8, [x29, #-8]
	.loc	10 0 29 is_stmt 0
	ldr	x8, [sp, #16]
	.loc	10 35 13
	ldrb	w8, [x8]
	add	w8, w8, #1
	str	w8, [sp, #12]
	mov	x9, x8
	subs	w8, w8, w9, uxtb
	b.ne	LBB78_6
	.loc	10 0 13
	ldr	w8, [sp, #12]
	ldr	x9, [sp, #16]
	.loc	10 35 13
	strb	w8, [x9]
	mov	w8, #1
	.loc	10 36 13 is_stmt 1
	sturb	w8, [x29, #-18]
	.loc	10 32 9
	b	LBB78_7
LBB78_6:
	.loc	10 0 0 is_stmt 0
	adrp	x0, _str.0@PAGE
	add	x0, x0, _str.0@PAGEOFF
	mov	w8, #28
	mov	x1, x8
	adrp	x2, l___unnamed_6@PAGE
	add	x2, x2, l___unnamed_6@PAGEOFF
	.loc	10 35 13 is_stmt 1
	bl	__ZN4core9panicking5panic17hb7c769f64780039bE
LBB78_7:
	.loc	10 38 6
	ldurb	w8, [x29, #-18]
	ldurb	w1, [x29, #-17]
	and	w0, w8, #0x1
	ldp	x29, x30, [sp, #64]
	add	sp, sp, #80
	ret
Ltmp249:
Lfunc_end78:
	.cfi_endproc

	.p2align	2
__ZN10async_rust11hello_world17h98a95fc3301c4b34E:
Lfunc_begin79:
	.loc	10 42 0
	.cfi_startproc
	sub	sp, sp, #32
	stp	x29, x30, [sp, #16]
	add	x29, sp, #16
	.cfi_def_cfa w29, 16
	.cfi_offset w30, -8
	.cfi_offset w29, -16
Ltmp250:
	.loc	10 42 24 prologue_end
	sturb	wzr, [x29, #-4]
	ldurh	w0, [x29, #-4]
	bl	__ZN4core6future14from_generator17h67506f2d2236aaa1E
	sturh	w0, [x29, #-2]
	ldurh	w8, [x29, #-2]
	sturh	w8, [x29, #-6]
	.loc	10 48 2
	ldurh	w0, [x29, #-6]
	ldp	x29, x30, [sp, #16]
	add	sp, sp, #32
	ret
Ltmp251:
Lfunc_end79:
	.cfi_endproc

	.p2align	2
__ZN10async_rust11hello_world28_$u7b$$u7b$closure$u7d$$u7d$17h41d171c61fa37efcE:
Lfunc_begin80:
	.loc	10 42 0
	.cfi_startproc
	.cfi_personality 155, _rust_eh_personality
	.cfi_lsda 16, Lexception4
	sub	sp, sp, #208
	stp	x29, x30, [sp, #192]
	add	x29, sp, #192
	.cfi_def_cfa w29, 16
	.cfi_offset w30, -8
	.cfi_offset w29, -16
	str	x0, [sp, #32]
	str	x1, [sp, #40]
	mov	w8, #0
	str	w8, [sp, #52]
	mov	x8, x0
	stur	x8, [x29, #-64]
	stur	x1, [x29, #-56]
Ltmp261:
	.loc	10 42 24 prologue_end
	ldrb	w8, [x0]
	subs	w8, w8, #0
	str	x8, [sp, #56]
	.loc	10 0 24 is_stmt 0
	ldr	x11, [sp, #56]
	.loc	10 42 24
	adrp	x10, LJTI80_0@PAGE
	add	x10, x10, LJTI80_0@PAGEOFF
Ltmp262:
	adr	x8, Ltmp262
	ldrsw	x9, [x10, x11, lsl #2]
	add	x8, x8, x9
	br	x8
LBB80_3:
	.loc	10 0 24
	ldr	x9, [sp, #32]
	ldr	x8, [sp, #40]
	.loc	10 42 24
	stur	x8, [x29, #-72]
	.loc	10 43 28 is_stmt 1
	strb	wzr, [sp, #69]
Ltmp263:
	.loc	10 46 5
	ldrb	w8, [sp, #69]
	strb	w8, [x9, #1]
Ltmp264:
	.loc	10 46 5 is_stmt 0
	b	LBB80_7
Ltmp265:
LBB80_4:
	.loc	10 0 5
	ldr	w8, [sp, #52]
	.loc	10 42 24 is_stmt 1
	tbnz	w8, #0, LBB80_4
	b	LBB80_9
LBB80_5:
	.loc	10 0 24 is_stmt 0
	ldr	w8, [sp, #52]
	.loc	10 42 24
	tbnz	w8, #0, LBB80_5
	b	LBB80_8
LBB80_6:
	.loc	10 0 24
	ldr	x8, [sp, #40]
Ltmp266:
	.loc	10 46 5 is_stmt 1
	stur	x8, [x29, #-72]
LBB80_7:
	.loc	10 0 5 is_stmt 0
	ldr	x8, [sp, #32]
	.loc	10 46 5
	add	x8, x8, #1
	mov	x9, x8
	stur	x9, [x29, #-8]
Ltmp267:
	.loc	9 572 9 is_stmt 1
	stur	x8, [x29, #-16]
	.loc	9 573 6
	ldur	x8, [x29, #-16]
	str	x8, [sp, #24]
	b	LBB80_10
Ltmp268:
LBB80_8:
	.loc	10 0 0 is_stmt 0
	adrp	x0, _str.1@PAGE
	add	x0, x0, _str.1@PAGEOFF
	mov	w8, #34
	mov	x1, x8
	adrp	x2, l___unnamed_7@PAGE
	add	x2, x2, l___unnamed_7@PAGEOFF
	.loc	10 42 24 is_stmt 1
	bl	__ZN4core9panicking5panic17hb7c769f64780039bE
LBB80_9:
	.loc	10 0 0 is_stmt 0
	adrp	x0, _str.2@PAGE
	add	x0, x0, _str.2@PAGEOFF
	mov	w8, #35
	mov	x1, x8
	adrp	x2, l___unnamed_7@PAGE
	add	x2, x2, l___unnamed_7@PAGEOFF
	.loc	10 42 24
	bl	__ZN4core9panicking5panic17hb7c769f64780039bE
LBB80_10:
Ltmp269:
	.loc	10 46 5 is_stmt 1
	ldur	x0, [x29, #-72]
Ltmp252:
	bl	__ZN4core6future11get_context17h4b16b8c75a46ab38E
	str	x0, [sp, #16]
Ltmp253:
	b	LBB80_13
Ltmp270:
LBB80_11:
	.loc	10 0 5 is_stmt 0
	ldr	x9, [sp, #32]
	mov	w8, #2
	.loc	10 42 24 is_stmt 1
	strb	w8, [x9]
	ldur	x0, [x29, #-48]
	bl	__Unwind_Resume
LBB80_12:
Ltmp260:
	.loc	10 0 24 is_stmt 0
	mov	x8, x1
	stur	x0, [x29, #-48]
	stur	w8, [x29, #-40]
	b	LBB80_11
LBB80_13:
Ltmp254:
	ldr	x1, [sp, #16]
	ldr	x0, [sp, #24]
Ltmp271:
	.loc	10 46 5 is_stmt 1
	bl	__ZN72_$LT$async_rust..DummyFuture$u20$as$u20$core..future..future..Future$GT$4poll17h5619da50c1d08938E
	str	w0, [sp, #8]
	str	w1, [sp, #12]
Ltmp255:
	.loc	10 0 5 is_stmt 0
	ldr	w8, [sp, #12]
	ldr	w9, [sp, #8]
	.loc	10 46 5
	strb	w9, [sp, #70]
	strb	w8, [sp, #71]
	ldrb	w8, [sp, #70]
	tbz	w8, #0, LBB80_17
	b	LBB80_18
LBB80_17:
	ldrb	w8, [sp, #71]
	sturb	w8, [x29, #-25]
Ltmp272:
	.loc	10 0 0
	adrp	x2, l___unnamed_4@PAGE
	add	x2, x2, l___unnamed_4@PAGEOFF
	.loc	10 47 5 is_stmt 1
	stur	x2, [x29, #-24]
Ltmp256:
	add	x8, sp, #72
Ltmp273:
	.loc	10 0 0 is_stmt 0
	adrp	x0, l___unnamed_8@PAGE
	add	x0, x0, l___unnamed_8@PAGEOFF
	mov	w9, #1
	mov	x1, x9
	mov	x3, #0
	.loc	10 47 5
	bl	__ZN4core3fmt9Arguments6new_v117h1aa5a50ccef83b92E
Ltmp257:
	b	LBB80_19
Ltmp274:
LBB80_18:
	.loc	10 0 5
	ldr	x9, [sp, #32]
Ltmp275:
	.loc	10 46 5 is_stmt 1
	strb	wzr, [sp, #68]
	mov	w8, #3
	strb	w8, [x9]
	ldrb	w8, [sp, #68]
	and	w0, w8, #0x1
	ldp	x29, x30, [sp, #192]
	add	sp, sp, #208
	ret
Ltmp276:
LBB80_19:
Ltmp258:
	.loc	10 0 5 is_stmt 0
	add	x0, sp, #72
	.loc	10 47 5 is_stmt 1
	bl	__ZN3std2io5stdio6_print17h4bf04a8fcf0e0accE
Ltmp277:
Ltmp259:
	.loc	10 0 5 is_stmt 0
	ldr	x9, [sp, #32]
	mov	w8, #1
	.loc	10 48 2 is_stmt 1
	strb	w8, [sp, #68]
	strb	w8, [x9]
	ldrb	w8, [sp, #68]
	and	w0, w8, #0x1
	ldp	x29, x30, [sp, #192]
	add	sp, sp, #208
	ret
Ltmp278:
Lfunc_end80:
	.cfi_endproc
	.section	__TEXT,__const
	.p2align	2
LJTI80_0:
	.long	LBB80_3-Ltmp262
	.long	LBB80_4-Ltmp262
	.long	LBB80_5-Ltmp262
	.long	LBB80_6-Ltmp262
	.section	__TEXT,__gcc_except_tab
	.p2align	2
GCC_except_table80:
Lexception4:
	.byte	255
	.byte	255
	.byte	1
	.uleb128 Lcst_end4-Lcst_begin4
Lcst_begin4:
	.uleb128 Lfunc_begin80-Lfunc_begin80
	.uleb128 Ltmp252-Lfunc_begin80
	.byte	0
	.byte	0
	.uleb128 Ltmp252-Lfunc_begin80
	.uleb128 Ltmp253-Ltmp252
	.uleb128 Ltmp260-Lfunc_begin80
	.byte	0
	.uleb128 Ltmp253-Lfunc_begin80
	.uleb128 Ltmp254-Ltmp253
	.byte	0
	.byte	0
	.uleb128 Ltmp254-Lfunc_begin80
	.uleb128 Ltmp259-Ltmp254
	.uleb128 Ltmp260-Lfunc_begin80
	.byte	0
Lcst_end4:
	.p2align	2

	.section	__TEXT,__text,regular,pure_instructions
	.p2align	2
__ZN10async_rust4main17h8e3d41be5fbaf72cE:
Lfunc_begin81:
	.loc	10 50 0
	.cfi_startproc
	.cfi_personality 155, _rust_eh_personality
	.cfi_lsda 16, Lexception5
	sub	sp, sp, #368
	stp	x28, x27, [sp, #336]
	stp	x29, x30, [sp, #352]
	add	x29, sp, #352
	.cfi_def_cfa w29, 16
	.cfi_offset w30, -8
	.cfi_offset w29, -16
	.cfi_offset w27, -24
	.cfi_offset w28, -32
Ltmp307:
	.loc	10 51 17 prologue_end
	bl	__ZN10async_rust10noop_waker17h7f6ffcdfe85761e9E
	str	x0, [sp, #88]
	str	x1, [sp, #96]
Ltmp279:
	.loc	10 0 17 is_stmt 0
	add	x0, sp, #88
Ltmp308:
	.loc	10 52 27 is_stmt 1
	bl	__ZN4core4task4wake7Context10from_waker17hd3b3ad236c36f9e4E
	str	x0, [sp, #80]
Ltmp280:
	.loc	10 0 27 is_stmt 0
	ldr	x8, [sp, #80]
	.loc	10 52 27
	str	x8, [sp, #104]
Ltmp281:
Ltmp309:
	.loc	10 53 31 is_stmt 1
	bl	__ZN10async_rust11hello_world17h98a95fc3301c4b34E
	str	w0, [sp, #76]
Ltmp282:
	b	LBB81_5
Ltmp310:
LBB81_3:
	.loc	10 0 31 is_stmt 0
	add	x0, sp, #88
	.loc	10 62 1 is_stmt 1
	bl	__ZN4core3ptr44drop_in_place$LT$core..task..wake..Waker$GT$17h6ca63b67f9cdd519E
	b	LBB81_26
LBB81_4:
Ltmp306:
	.loc	10 0 1 is_stmt 0
	mov	x8, x1
	stur	x0, [x29, #-112]
	stur	w8, [x29, #-104]
	b	LBB81_3
LBB81_5:
	ldr	w8, [sp, #76]
Ltmp311:
	.loc	10 53 31 is_stmt 1
	sturh	w8, [x29, #-90]
	ldurh	w8, [x29, #-90]
	strh	w8, [sp, #124]
	.loc	10 53 22 is_stmt 0
	ldrh	w8, [sp, #124]
	sturh	w8, [x29, #-66]
	ldurh	w8, [x29, #-66]
	sturh	w8, [x29, #-68]
Ltmp283:
	mov	w8, #2
	mov	x0, x8
	mov	w8, #1
	mov	x1, x8
Ltmp312:
	.loc	24 250 9 is_stmt 1
	bl	__ZN5alloc5alloc15exchange_malloc17he8df718d78183c22E
	str	x0, [sp, #64]
Ltmp284:
	.loc	24 0 9 is_stmt 0
	ldr	x0, [sp, #64]
	.loc	24 250 14
	ldurh	w8, [x29, #-68]
	strh	w8, [x0]
Ltmp285:
	.loc	24 250 9
	bl	__ZN50_$LT$T$u20$as$u20$core..convert..Into$LT$U$GT$$GT$4into17ha7840838c21b7b5eE
	str	x0, [sp, #56]
Ltmp313:
Ltmp286:
	.loc	24 0 9
	ldr	x8, [sp, #56]
	add	x0, sp, #112
	.loc	10 53 22 is_stmt 1
	str	x8, [sp, #112]
	mov	x8, x0
	stur	x8, [x29, #-64]
Ltmp287:
Ltmp314:
	.loc	9 643 42
	bl	__ZN77_$LT$alloc..boxed..Box$LT$T$C$A$GT$$u20$as$u20$core..ops..deref..DerefMut$GT$9deref_mut17hc6e12b08a9fc704eE
	str	x0, [sp, #48]
Ltmp288:
	.loc	9 0 42 is_stmt 0
	ldr	x8, [sp, #48]
	mov	x9, x8
	stur	x9, [x29, #-48]
Ltmp315:
	.loc	9 572 9 is_stmt 1
	stur	x8, [x29, #-56]
	.loc	9 573 6
	ldur	x8, [x29, #-56]
	str	x8, [sp, #40]
Ltmp316:
Ltmp289:
	.loc	9 0 6 is_stmt 0
	ldr	x0, [sp, #40]
	add	x1, sp, #104
	.loc	10 55 31 is_stmt 1
	bl	__ZN97_$LT$core..future..from_generator..GenFuture$LT$T$GT$$u20$as$u20$core..future..future..Future$GT$4poll17hed60393b7c0af7d2E
	str	w0, [sp, #36]
Ltmp290:
	b	LBB81_13
Ltmp317:
LBB81_11:
	.loc	10 0 31 is_stmt 0
	add	x0, sp, #112
	.loc	10 62 1 is_stmt 1
	bl	__ZN4core3ptr167drop_in_place$LT$core..pin..Pin$LT$alloc..boxed..Box$LT$core..future..from_generator..GenFuture$LT$async_rust..hello_world..$u7b$$u7b$closure$u7d$$u7d$$GT$$GT$$GT$$GT$17h38f4fb4b69236da5E
	b	LBB81_3
LBB81_12:
Ltmp303:
	.loc	10 0 1 is_stmt 0
	mov	x8, x1
	stur	x0, [x29, #-112]
	stur	w8, [x29, #-104]
	b	LBB81_11
LBB81_13:
	ldr	w8, [sp, #36]
Ltmp318:
	.loc	10 55 31 is_stmt 1
	and	w8, w8, #0x1
	strb	w8, [sp, #127]
	.loc	10 55 12 is_stmt 0
	ldrb	w8, [sp, #127]
	tbnz	w8, #0, LBB81_15
	.loc	10 0 0
	adrp	x2, l___unnamed_4@PAGE
	add	x2, x2, l___unnamed_4@PAGEOFF
	.loc	10 56 9 is_stmt 1
	stur	x2, [x29, #-88]
Ltmp291:
	add	x8, sp, #128
Ltmp319:
	.loc	10 0 0 is_stmt 0
	adrp	x0, l___unnamed_9@PAGE
	add	x0, x0, l___unnamed_9@PAGEOFF
	mov	w9, #1
	mov	x1, x9
	mov	x3, #0
	.loc	10 56 9
	bl	__ZN4core3fmt9Arguments6new_v117h1aa5a50ccef83b92E
Ltmp292:
	b	LBB81_17
Ltmp320:
LBB81_15:
	.loc	10 0 9
	add	x0, sp, #112
	mov	x8, x0
	stur	x8, [x29, #-40]
Ltmp295:
Ltmp321:
	.loc	9 643 42 is_stmt 1
	bl	__ZN77_$LT$alloc..boxed..Box$LT$T$C$A$GT$$u20$as$u20$core..ops..deref..DerefMut$GT$9deref_mut17hc6e12b08a9fc704eE
	str	x0, [sp, #24]
Ltmp296:
	.loc	9 0 42 is_stmt 0
	ldr	x8, [sp, #24]
	mov	x9, x8
	stur	x9, [x29, #-24]
Ltmp322:
	.loc	9 572 9 is_stmt 1
	stur	x8, [x29, #-32]
	.loc	9 573 6
	ldur	x8, [x29, #-32]
	str	x8, [sp, #16]
Ltmp323:
	.loc	9 644 6
	b	LBB81_19
Ltmp324:
LBB81_17:
Ltmp293:
	.loc	9 0 6 is_stmt 0
	add	x0, sp, #128
	.loc	10 56 9 is_stmt 1
	bl	__ZN3std2io5stdio6_print17h4bf04a8fcf0e0accE
Ltmp294:
	b	LBB81_15
LBB81_19:
Ltmp297:
	.loc	10 0 9 is_stmt 0
	ldr	x0, [sp, #16]
	add	x1, sp, #104
	.loc	10 59 32 is_stmt 1
	bl	__ZN97_$LT$core..future..from_generator..GenFuture$LT$T$GT$$u20$as$u20$core..future..future..Future$GT$4poll17hed60393b7c0af7d2E
	str	w0, [sp, #12]
Ltmp298:
	.loc	10 0 32 is_stmt 0
	ldr	w8, [sp, #12]
	.loc	10 59 32
	and	w8, w8, #0x1
	sturb	w8, [x29, #-169]
	.loc	10 59 12
	ldurb	w8, [x29, #-169]
	tbnz	w8, #0, LBB81_22
	.loc	10 0 0
	adrp	x2, l___unnamed_4@PAGE
	add	x2, x2, l___unnamed_4@PAGEOFF
	.loc	10 60 9 is_stmt 1
	stur	x2, [x29, #-80]
Ltmp299:
	sub	x8, x29, #168
Ltmp325:
	.loc	10 0 0 is_stmt 0
	adrp	x0, l___unnamed_10@PAGE
	add	x0, x0, l___unnamed_10@PAGEOFF
	mov	w9, #1
	mov	x1, x9
	mov	x3, #0
	.loc	10 60 9
	bl	__ZN4core3fmt9Arguments6new_v117h1aa5a50ccef83b92E
Ltmp300:
	b	LBB81_23
Ltmp326:
LBB81_22:
Ltmp304:
	.loc	10 0 9
	add	x0, sp, #112
	.loc	10 62 1 is_stmt 1
	bl	__ZN4core3ptr167drop_in_place$LT$core..pin..Pin$LT$alloc..boxed..Box$LT$core..future..from_generator..GenFuture$LT$async_rust..hello_world..$u7b$$u7b$closure$u7d$$u7d$$GT$$GT$$GT$$GT$17h38f4fb4b69236da5E
Ltmp305:
	b	LBB81_25
LBB81_23:
Ltmp301:
	.loc	10 0 1 is_stmt 0
	sub	x0, x29, #168
Ltmp327:
	.loc	10 60 9 is_stmt 1
	bl	__ZN3std2io5stdio6_print17h4bf04a8fcf0e0accE
Ltmp302:
	b	LBB81_22
Ltmp328:
LBB81_25:
	.loc	10 0 9 is_stmt 0
	add	x0, sp, #88
	.loc	10 62 1 is_stmt 1
	bl	__ZN4core3ptr44drop_in_place$LT$core..task..wake..Waker$GT$17h6ca63b67f9cdd519E
	b	LBB81_27
LBB81_26:
	.loc	10 50 1
	ldur	x0, [x29, #-112]
	bl	__Unwind_Resume
LBB81_27:
	.loc	10 62 2
	ldp	x29, x30, [sp, #352]
	ldp	x28, x27, [sp, #336]
	add	sp, sp, #368
	ret
Ltmp329:
Lfunc_end81:
	.cfi_endproc
	.section	__TEXT,__gcc_except_tab
	.p2align	2
GCC_except_table81:
Lexception5:
	.byte	255
	.byte	255
	.byte	1
	.uleb128 Lcst_end5-Lcst_begin5
Lcst_begin5:
	.uleb128 Lfunc_begin81-Lfunc_begin81
	.uleb128 Ltmp279-Lfunc_begin81
	.byte	0
	.byte	0
	.uleb128 Ltmp279-Lfunc_begin81
	.uleb128 Ltmp282-Ltmp279
	.uleb128 Ltmp306-Lfunc_begin81
	.byte	0
	.uleb128 Ltmp282-Lfunc_begin81
	.uleb128 Ltmp283-Ltmp282
	.byte	0
	.byte	0
	.uleb128 Ltmp283-Lfunc_begin81
	.uleb128 Ltmp286-Ltmp283
	.uleb128 Ltmp306-Lfunc_begin81
	.byte	0
	.uleb128 Ltmp287-Lfunc_begin81
	.uleb128 Ltmp290-Ltmp287
	.uleb128 Ltmp303-Lfunc_begin81
	.byte	0
	.uleb128 Ltmp290-Lfunc_begin81
	.uleb128 Ltmp291-Ltmp290
	.byte	0
	.byte	0
	.uleb128 Ltmp291-Lfunc_begin81
	.uleb128 Ltmp300-Ltmp291
	.uleb128 Ltmp303-Lfunc_begin81
	.byte	0
	.uleb128 Ltmp304-Lfunc_begin81
	.uleb128 Ltmp305-Ltmp304
	.uleb128 Ltmp306-Lfunc_begin81
	.byte	0
	.uleb128 Ltmp301-Lfunc_begin81
	.uleb128 Ltmp302-Ltmp301
	.uleb128 Ltmp303-Lfunc_begin81
	.byte	0
	.uleb128 Ltmp302-Lfunc_begin81
	.uleb128 Lfunc_end81-Ltmp302
	.byte	0
	.byte	0
Lcst_end5:
	.p2align	2

	.section	__TEXT,__text,regular,pure_instructions
	.globl	_main
	.p2align	2
_main:
Lfunc_begin82:
	.cfi_startproc
	stp	x29, x30, [sp, #-16]!
	mov	x29, sp
	.cfi_def_cfa w29, 16
	.cfi_offset w30, -8
	.cfi_offset w29, -16
	mov	x2, x1
	mov	x8, x0
	sxtw	x1, w8
	adrp	x0, __ZN10async_rust4main17h8e3d41be5fbaf72cE@PAGE
	add	x0, x0, __ZN10async_rust4main17h8e3d41be5fbaf72cE@PAGEOFF
	bl	__ZN3std2rt10lang_start17hd54c34dc581ca981E
	ldp	x29, x30, [sp], #16
	ret
Lfunc_end82:
	.cfi_endproc

	.section	__DATA,__const
	.p2align	3
l___unnamed_1:
	.quad	__ZN4core3ptr85drop_in_place$LT$std..rt..lang_start$LT$$LP$$RP$$GT$..$u7b$$u7b$closure$u7d$$u7d$$GT$17h5ede20698f26fdc2E
	.asciz	"\b\000\000\000\000\000\000\000\b\000\000\000\000\000\000"
	.quad	__ZN4core3ops8function6FnOnce40call_once$u7b$$u7b$vtable.shim$u7d$$u7d$17h5f75351d3a7c752aE
	.quad	__ZN3std2rt10lang_start28_$u7b$$u7b$closure$u7d$$u7d$17h8631bf89876d8874E
	.quad	__ZN3std2rt10lang_start28_$u7b$$u7b$closure$u7d$$u7d$17h8631bf89876d8874E

	.section	__TEXT,__const
l___unnamed_2:
	.ascii	"invalid args"

l___unnamed_11:
	.ascii	"/private/tmp/rust-20211101-73771-1w3cv5q/rustc-1.56.1-src/library/core/src/fmt/mod.rs"

	.section	__DATA,__const
	.p2align	3
l___unnamed_3:
	.quad	l___unnamed_11
	.asciz	"U\000\000\000\000\000\000\000Z\001\000\000\r\000\000"

	.section	__TEXT,__const
	.p2align	3
l___unnamed_4:
	.byte	0

	.section	__DATA,__const
	.p2align	3
l___unnamed_5:
	.quad	__ZN10async_rust10noop_clone17hb22dfbc0c67cef13E
	.quad	__ZN10async_rust4noop17h3636637bd211a95bE
	.quad	__ZN10async_rust4noop17h3636637bd211a95bE
	.quad	__ZN10async_rust4noop17h3636637bd211a95bE

	.section	__TEXT,__const
l___unnamed_12:
	.ascii	"main.rs"

	.section	__DATA,__const
	.p2align	3
l___unnamed_6:
	.quad	l___unnamed_12
	.asciz	"\007\000\000\000\000\000\000\000#\000\000\000\r\000\000"

	.section	__TEXT,__const
	.p2align	4
_str.0:
	.ascii	"attempt to add with overflow"

	.section	__DATA,__const
	.p2align	3
l___unnamed_7:
	.quad	l___unnamed_12
	.asciz	"\007\000\000\000\000\000\000\000*\000\000\000\030\000\000"

	.section	__TEXT,__const
	.p2align	4
_str.1:
	.ascii	"`async fn` resumed after panicking"

	.p2align	4
_str.2:
	.ascii	"`async fn` resumed after completion"

l___unnamed_13:
	.ascii	"hello, world!\n"

	.section	__DATA,__const
	.p2align	3
l___unnamed_8:
	.quad	l___unnamed_13
	.asciz	"\016\000\000\000\000\000\000"

	.section	__TEXT,__const
l___unnamed_14:
	.ascii	"Completed on first poll!\n"

	.section	__DATA,__const
	.p2align	3
l___unnamed_9:
	.quad	l___unnamed_14
	.asciz	"\031\000\000\000\000\000\000"

	.section	__TEXT,__const
l___unnamed_15:
	.ascii	"Completed on second poll!\n"

	.section	__DATA,__const
	.p2align	3
l___unnamed_10:
	.quad	l___unnamed_15
	.asciz	"\032\000\000\000\000\000\000"

	.section	__DATA,__const
Lsec_end0:
	.section	__TEXT,__text,regular,pure_instructions
Lsec_end1: